

Microchip Technology PIC LITE Macro Assembler V1.45 build -152302408 
                                                                                               Tue Jul 03 12:29:49 2018

Microchip Technology Omniscient Code Generator v1.45 (Free mode) build 201711160504
     1                           	processor	16F887
     2                           	opt	pw 120
     3                           	opt	lm
     4                           	psect	idataCOMMON,global,class=CODE,delta=2
     5                           	psect	idataBANK0,global,class=CODE,delta=2
     6                           	psect	cinit,global,class=CODE,merge=1,delta=2
     7                           	psect	dataCOMMON,global,class=COMMON,space=1,delta=1
     8                           	psect	bssBANK0,global,class=BANK0,space=1,delta=1
     9                           	psect	dataBANK0,global,class=BANK0,space=1,delta=1
    10                           	psect	bssBANK1,global,class=BANK1,space=1,delta=1
    11                           	psect	inittext,global,class=CODE,delta=2
    12                           	psect	clrtext,global,class=CODE,delta=2
    13                           	psect	cstackBANK1,global,class=BANK1,space=1,delta=1
    14                           	psect	cstackCOMMON,global,class=COMMON,space=1,delta=1
    15                           	psect	cstackBANK0,global,class=BANK0,space=1,delta=1
    16                           	psect	maintext,global,class=CODE,split=1,delta=2
    17                           	psect	text1,local,class=CODE,merge=1,delta=2
    18                           	psect	text2,local,class=CODE,merge=1,delta=2
    19                           	psect	text3,local,class=CODE,merge=1,delta=2
    20                           	psect	text4,local,class=CODE,merge=1,delta=2,group=2
    21                           	psect	text5,local,class=CODE,merge=1,delta=2,group=2
    22                           	psect	text6,local,class=CODE,merge=1,delta=2,group=2
    23                           	psect	text7,local,class=CODE,merge=1,delta=2,group=2
    24                           	psect	text8,local,class=CODE,merge=1,delta=2
    25                           	psect	text9,local,class=CODE,merge=1,delta=2
    26                           	psect	text10,local,class=CODE,merge=1,delta=2,group=2
    27                           	psect	text11,local,class=CODE,merge=1,delta=2
    28                           	psect	text12,local,class=CODE,merge=1,delta=2
    29                           	psect	text13,local,class=CODE,merge=1,delta=2
    30                           	psect	text14,local,class=CODE,merge=1,delta=2
    31                           	psect	text15,local,class=CODE,merge=1,delta=2
    32                           	psect	text16,local,class=CODE,merge=1,delta=2
    33                           	psect	text17,local,class=CODE,merge=1,delta=2
    34                           	psect	text18,local,class=CODE,merge=1,delta=2
    35                           	psect	text19,local,class=CODE,merge=1,delta=2
    36                           	psect	intentry,global,class=CODE,delta=2
    37                           	psect	text20,local,class=CODE,merge=1,delta=2
    38                           	psect	text21,local,class=CODE,merge=1,delta=2
    39                           	psect	text22,local,class=CODE,merge=1,delta=2
    40                           	psect	text23,local,class=CODE,merge=1,delta=2
    41                           	dabs	1,0x7E,2
    42  0000                     
    43                           ; Version 1.45
    44                           ; Generated 16/11/2017 GMT
    45                           ; 
    46                           ; Copyright © 2017, Microchip Technology Inc. and its subsidiaries ("Microchip")
    47                           ; All rights reserved.
    48                           ; 
    49                           ; This software is developed by Microchip Technology Inc. and its subsidiaries ("Microch
      +                          ip").
    50                           ; 
    51                           ; Redistribution and use in source and binary forms, with or without modification, are
    52                           ; permitted provided that the following conditions are met:
    53                           ; 
    54                           ;     1. Redistributions of source code must retain the above copyright notice, this lis
      +                          t of
    55                           ;        conditions and the following disclaimer.
    56                           ; 
    57                           ;     2. Redistributions in binary form must reproduce the above copyright notice, this 
      +                          list
    58                           ;        of conditions and the following disclaimer in the documentation and/or other
    59                           ;        materials provided with the distribution.
    60                           ; 
    61                           ;     3. Microchip's name may not be used to endorse or promote products derived from th
      +                          is
    62                           ;        software without specific prior written permission.
    63                           ; 
    64                           ; THIS SOFTWARE IS PROVIDED BY MICROCHIP "AS IS" AND ANY EXPRESS OR IMPLIED WARRANTIES,
    65                           ; INCLUDING, BUT NOT LIMITED TO, THE IMPLIED WARRANTIES OF MERCHANTABILITY AND FITNESS F
      +                          OR
    66                           ; PURPOSE ARE DISCLAIMED.  IN NO EVENT SHALL MICROCHIP BE LIABLE FOR ANY DIRECT, INDIREC
      +                          T,
    67                           ; INCIDENTAL, SPECIAL, EXEMPLARY, OR CONSEQUENTIAL DAMAGES (INCLUDING BUT NOT LIMITED TO
    68                           ; PROCUREMENT OF SUBSTITUTE GOODS OR SERVICES; LOSS OF USE, DATA OR PROFITS; OR BUSINESS
    69                           ; INTERRUPTION) HOWSOEVER CAUSED AND ON ANY THEORY OF LIABILITY, WHETHER IN CONTRACT, ST
      +                          RICT
    70                           ; LIABILITY, OR TORT (INCLUDING NEGLIGENCE OR OTHERWISE) ARISING IN ANY WAY OUT OF THE U
      +                          SE OF
    71                           ; THIS SOFTWARE, EVEN IF ADVISED OF THE POSSIBILITY OF SUCH DAMAGE.
    72                           ; 
    73                           ; 
    74                           ; Code-generator required, PIC16F887 Definitions
    75                           ; 
    76                           ; SFR Addresses
    77  0000                     	;# 
    78  0001                     	;# 
    79  0002                     	;# 
    80  0003                     	;# 
    81  0004                     	;# 
    82  0005                     	;# 
    83  0006                     	;# 
    84  0007                     	;# 
    85  0008                     	;# 
    86  0009                     	;# 
    87  000A                     	;# 
    88  000B                     	;# 
    89  000C                     	;# 
    90  000D                     	;# 
    91  000E                     	;# 
    92  000E                     	;# 
    93  000F                     	;# 
    94  0010                     	;# 
    95  0011                     	;# 
    96  0012                     	;# 
    97  0013                     	;# 
    98  0014                     	;# 
    99  0015                     	;# 
   100  0015                     	;# 
   101  0016                     	;# 
   102  0017                     	;# 
   103  0018                     	;# 
   104  0019                     	;# 
   105  001A                     	;# 
   106  001B                     	;# 
   107  001B                     	;# 
   108  001C                     	;# 
   109  001D                     	;# 
   110  001E                     	;# 
   111  001F                     	;# 
   112  0081                     	;# 
   113  0085                     	;# 
   114  0086                     	;# 
   115  0087                     	;# 
   116  0088                     	;# 
   117  0089                     	;# 
   118  008C                     	;# 
   119  008D                     	;# 
   120  008E                     	;# 
   121  008F                     	;# 
   122  0090                     	;# 
   123  0091                     	;# 
   124  0092                     	;# 
   125  0093                     	;# 
   126  0093                     	;# 
   127  0093                     	;# 
   128  0094                     	;# 
   129  0095                     	;# 
   130  0096                     	;# 
   131  0097                     	;# 
   132  0098                     	;# 
   133  0099                     	;# 
   134  009A                     	;# 
   135  009B                     	;# 
   136  009C                     	;# 
   137  009D                     	;# 
   138  009E                     	;# 
   139  009F                     	;# 
   140  0105                     	;# 
   141  0107                     	;# 
   142  0108                     	;# 
   143  0109                     	;# 
   144  010C                     	;# 
   145  010C                     	;# 
   146  010D                     	;# 
   147  010E                     	;# 
   148  010F                     	;# 
   149  0185                     	;# 
   150  0187                     	;# 
   151  0188                     	;# 
   152  0189                     	;# 
   153  018C                     	;# 
   154  018D                     	;# 
   155                           
   156                           	psect	idataCOMMON
   157  07FE                     __pidataCOMMON:	
   158                           
   159                           ;initializer for _ledbarra2
   160  07FE  3408               	retlw	8
   161                           
   162                           	psect	idataBANK0
   163  10A8                     __pidataBANK0:	
   164                           
   165                           ;initializer for _tiempo
   166  10A8  3464               	retlw	100
   167                           
   168                           ;initializer for _Trayectoria
   169  10A9  3401               	retlw	1
   170                           
   171                           ;initializer for _ledbarra1
   172  10AA  3408               	retlw	8
   173                           
   174                           ;initializer for _filaball
   175  10AB  3402               	retlw	2
   176                           
   177                           ;initializer for _ledball
   178  10AC  3408               	retlw	8
   179                           
   180                           ;initializer for _gol1
   181  10AD  3401               	retlw	1
   182                           
   183                           ;initializer for _primerinicio
   184  10AE  3401               	retlw	1
   185  000E                     _TMR1	set	14
   186  0013                     _SSPBUF	set	19
   187  0014                     _SSPCON	set	20
   188  000C                     _PIR1bits	set	12
   189  0010                     _T1CONbits	set	16
   190  0010                     _T1CON	set	16
   191  0008                     _PORTD	set	8
   192  0007                     _PORTCbits	set	7
   193  0007                     _PORTC	set	7
   194  0006                     _PORTB	set	6
   195  000B                     _INTCONbits	set	11
   196  0006                     _PORTBbits	set	6
   197  0094                     _SSPSTATbits	set	148
   198  0094                     _SSPSTAT	set	148
   199  0096                     _IOCB	set	150
   200  008C                     _PIE1bits	set	140
   201  0088                     _TRISD	set	136
   202  0086                     _TRISB	set	134
   203  0087                     _TRISCbits	set	135
   204  0189                     _ANSELH	set	393
   205  0188                     _ANSEL	set	392
   206                           
   207                           ; #config settings
   208  0000                     
   209                           	psect	cinit
   210  0015                     start_initialization:	
   211  0015                     __initialization:	
   212                           
   213                           ; Initialize objects allocated to BANK0
   214  0015  1383               	bcf	3,7	;select IRP bank0
   215  0016  3062               	movlw	low (__pdataBANK0+7)
   216  0017  00FD               	movwf	btemp+-1
   217  0018  3010               	movlw	high __pidataBANK0
   218  0019  00FE               	movwf	btemp
   219  001A  30A8               	movlw	low __pidataBANK0
   220  001B  00FF               	movwf	btemp+1
   221  001C  305B               	movlw	low __pdataBANK0
   222  001D  0084               	movwf	4
   223  001E  120A  118A  27F1  120A  118A  	fcall	init_ram0
   224                           
   225                           ; Initialize objects allocated to COMMON
   226  0023  120A  118A  27FE  120A  118A  	fcall	__pidataCOMMON	;fetch initializer
   227  0028  00FD               	movwf	__pdataCOMMON& (0+127)
   228                           
   229                           ; Clear objects allocated to BANK1
   230  0029  30A0               	movlw	low __pbssBANK1
   231  002A  0084               	movwf	4
   232  002B  30D8               	movlw	low (__pbssBANK1+56)
   233  002C  160A  118A  20AF  120A  118A  	fcall	clear_ram0
   234                           
   235                           ; Clear objects allocated to BANK0
   236  0031  3051               	movlw	low __pbssBANK0
   237  0032  0084               	movwf	4
   238  0033  305B               	movlw	low (__pbssBANK0+10)
   239  0034  160A  118A  20AF   	fcall	clear_ram0
   240  0037                     end_of_initialization:	
   241                           ;End of C runtime variable initialization code
   242                           
   243  0037                     __end_of__initialization:	
   244  0037  0183               	clrf	3
   245  0038  120A  158A  2801   	ljmp	_main	;jump to C main() function
   246                           
   247                           	psect	dataCOMMON
   248  007D                     __pdataCOMMON:	
   249  007D                     _ledbarra2:	
   250  007D                     	ds	1
   251                           
   252                           	psect	bssBANK0
   253  0051                     __pbssBANK0:	
   254  0051                     _bandera3:	
   255  0051                     	ds	1
   256  0052                     _bandera2:	
   257  0052                     	ds	1
   258  0053                     _bandera1:	
   259  0053                     	ds	1
   260  0054                     _banderagol:	
   261  0054                     	ds	1
   262  0055                     _puntaje2:	
   263  0055                     	ds	1
   264  0056                     _puntaje1:	
   265  0056                     	ds	1
   266  0057                     _gol2:	
   267  0057                     	ds	1
   268  0058                     _saque:	
   269  0058                     	ds	1
   270  0059                     _banderainicio2:	
   271  0059                     	ds	1
   272  005A                     _banderainicio1:	
   273  005A                     	ds	1
   274                           
   275                           	psect	dataBANK0
   276  005B                     __pdataBANK0:	
   277  005B                     _tiempo:	
   278  005B                     	ds	1
   279  005C                     _Trayectoria:	
   280  005C                     	ds	1
   281  005D                     _ledbarra1:	
   282  005D                     	ds	1
   283  005E                     _filaball:	
   284  005E                     	ds	1
   285  005F                     _ledball:	
   286  005F                     	ds	1
   287  0060                     _gol1:	
   288  0060                     	ds	1
   289  0061                     _primerinicio:	
   290  0061                     	ds	1
   291                           
   292                           	psect	bssBANK1
   293  00A0                     __pbssBANK1:	
   294  00A0                     _bufer:	
   295  00A0                     	ds	16
   296  00B0                     _linea2:	
   297  00B0                     	ds	16
   298  00C0                     _linea1:	
   299  00C0                     	ds	16
   300  00D0                     _contador:	
   301  00D0                     	ds	1
   302  00D1                     _banderajuego:	
   303  00D1                     	ds	1
   304  00D2                     _bandera4:	
   305  00D2                     	ds	1
   306  00D3                     _min:	
   307  00D3                     	ds	1
   308  00D4                     _Contadormin:	
   309  00D4                     	ds	1
   310  00D5                     _seg:	
   311  00D5                     	ds	1
   312  00D6                     _Contadorseg:	
   313  00D6                     	ds	1
   314  00D7                     _BanderaSprintf:	
   315  00D7                     	ds	1
   316                           
   317                           	psect	inittext
   318  07ED                     init_fetch0:	
   319                           ;	Called with low address in FSR and high address in W
   320                           
   321  07ED  087E               	movf	126,w
   322  07EE  008A               	movwf	10
   323  07EF  087F               	movf	127,w
   324  07F0  0082               	movwf	2
   325  07F1                     init_ram0:	
   326                           ;Called with:
   327                           ;	high address of idata address in btemp 
   328                           ;	low address of idata address in btemp+1 
   329                           ;	low address of data in FSR
   330                           ;	high address + 1 of data in btemp-1
   331                           
   332  07F1  27ED  120A  118A   	fcall	init_fetch0
   333  07F4  0080               	movwf	0
   334  07F5  0A84               	incf	4,f
   335  07F6  0804               	movf	4,w
   336  07F7  067D               	xorwf	125,w
   337  07F8  1903               	btfsc	3,2
   338  07F9  3400               	retlw	0
   339  07FA  0AFF               	incf	127,f
   340  07FB  1903               	btfsc	3,2
   341  07FC  0AFE               	incf	126,f
   342  07FD  2FF1               	goto	init_ram0
   343                           
   344                           	psect	clrtext
   345  10AF                     clear_ram0:	
   346                           ;	Called with FSR containing the base address, and
   347                           ;	W with the last address+1
   348                           
   349  10AF  0064               	clrwdt	;clear the watchdog before getting into this loop
   350  10B0                     clrloop0:	
   351  10B0  0180               	clrf	0	;clear RAM location pointed to by FSR
   352  10B1  0A84               	incf	4,f	;increment pointer
   353  10B2  0604               	xorwf	4,w	;XOR with final address
   354  10B3  1903               	btfsc	3,2	;have we reached the end yet?
   355  10B4  3400               	retlw	0	;all done for this memory range, return
   356  10B5  0604               	xorwf	4,w	;XOR again to restore value
   357  10B6  28B0               	goto	clrloop0	;do the next byte
   358                           
   359                           	psect	cstackBANK1
   360  00D8                     __pcstackBANK1:	
   361  00D8                     ??___fttol:	
   362                           
   363                           ; 1 bytes @ 0x0
   364  00D8                     	ds	4
   365  00DC                     ___fttol@sign1:	
   366                           
   367                           ; 1 bytes @ 0x4
   368  00DC                     	ds	1
   369  00DD                     ___fttol@lval:	
   370                           
   371                           ; 4 bytes @ 0x5
   372  00DD                     	ds	4
   373  00E1                     ___fttol@exp1:	
   374                           
   375                           ; 1 bytes @ 0x9
   376  00E1                     	ds	1
   377  00E2                     ??_Juego:	
   378                           
   379                           ; 1 bytes @ 0xA
   380  00E2                     	ds	4
   381                           
   382                           	psect	cstackCOMMON
   383  0070                     __pcstackCOMMON:	
   384  0070                     ?_InitES:	
   385  0070                     ?_InitSPI:	
   386                           ; 1 bytes @ 0x0
   387                           
   388  0070                     ?_InitTMR1:	
   389                           ; 1 bytes @ 0x0
   390                           
   391  0070                     ?_Posicioninicial:	
   392                           ; 1 bytes @ 0x0
   393                           
   394  0070                     ?_Juego:	
   395                           ; 1 bytes @ 0x0
   396                           
   397  0070                     ?_Gol:	
   398                           ; 1 bytes @ 0x0
   399                           
   400  0070                     ?_Marcador:	
   401                           ; 1 bytes @ 0x0
   402                           
   403  0070                     ?_Saque:	
   404                           ; 1 bytes @ 0x0
   405                           
   406  0070                     ?_inicializacion:	
   407                           ; 1 bytes @ 0x0
   408                           
   409  0070                     ?_rutinainterrupciones:	
   410                           ; 1 bytes @ 0x0
   411                           
   412  0070                     ?_main:	
   413                           ; 1 bytes @ 0x0
   414                           
   415  0070                     ?i1_enviardato:	
   416                           ; 1 bytes @ 0x0
   417                           
   418  0070                     ?i1_enviardato2:	
   419                           ; 1 bytes @ 0x0
   420                           
   421  0070                     ?i1___awdiv:	
   422                           ; 1 bytes @ 0x0
   423                           
   424  0070                     i1enviardato@dato:	
   425                           ; 2 bytes @ 0x0
   426                           
   427  0070                     i1enviardato2@dato:	
   428                           ; 1 bytes @ 0x0
   429                           
   430  0070                     i1___awdiv@divisor:	
   431                           ; 1 bytes @ 0x0
   432                           
   433                           
   434                           ; 2 bytes @ 0x0
   435  0070                     	ds	1
   436  0071                     ??i1_enviardato:	
   437  0071                     ??i1_enviardato2:	
   438                           ; 1 bytes @ 0x1
   439                           
   440                           
   441                           ; 1 bytes @ 0x1
   442  0071                     	ds	1
   443  0072                     i1___awdiv@dividend:	
   444                           
   445                           ; 2 bytes @ 0x2
   446  0072                     	ds	1
   447  0073                     i1enviardato@direccion:	
   448  0073                     i1enviardato2@direccion:	
   449                           ; 1 bytes @ 0x3
   450                           
   451                           
   452                           ; 1 bytes @ 0x3
   453  0073                     	ds	1
   454  0074                     ??i1___awdiv:	
   455                           
   456                           ; 1 bytes @ 0x4
   457  0074                     	ds	1
   458  0075                     i1___awdiv@counter:	
   459                           
   460                           ; 1 bytes @ 0x5
   461  0075                     	ds	1
   462  0076                     i1___awdiv@sign:	
   463                           
   464                           ; 1 bytes @ 0x6
   465  0076                     	ds	1
   466  0077                     i1___awdiv@quotient:	
   467                           
   468                           ; 2 bytes @ 0x7
   469  0077                     	ds	2
   470  0079                     ?i1_barras:	
   471  0079                     i1barras@posicionbarra2:	
   472                           ; 1 bytes @ 0x9
   473                           
   474                           
   475                           ; 1 bytes @ 0x9
   476  0079                     	ds	1
   477  007A                     i1barras@posicionbarra1:	
   478                           
   479                           ; 1 bytes @ 0xA
   480  007A                     	ds	1
   481  007B                     i1barras@barrafinal1:	
   482                           
   483                           ; 1 bytes @ 0xB
   484  007B                     	ds	1
   485  007C                     i1barras@barrafinal2:	
   486                           
   487                           ; 1 bytes @ 0xC
   488  007C                     	ds	1
   489                           
   490                           	psect	cstackBANK0
   491  0020                     __pcstackBANK0:	
   492  0020                     ??i1_barras:	
   493                           
   494                           ; 1 bytes @ 0x0
   495  0020                     	ds	5
   496  0025                     ??_rutinainterrupciones:	
   497                           
   498                           ; 1 bytes @ 0x5
   499  0025                     	ds	7
   500  002C                     ??_InitES:	
   501  002C                     ?_enviardato:	
   502                           ; 1 bytes @ 0xC
   503                           
   504  002C                     ??_InitTMR1:	
   505                           ; 1 bytes @ 0xC
   506                           
   507  002C                     ?_enviardato0:	
   508                           ; 1 bytes @ 0xC
   509                           
   510  002C                     ?_enviardato2:	
   511                           ; 1 bytes @ 0xC
   512                           
   513  002C                     ??_inicializacion:	
   514                           ; 1 bytes @ 0xC
   515                           
   516  002C                     ?___awdiv:	
   517                           ; 1 bytes @ 0xC
   518                           
   519  002C                     ?___ftpack:	
   520                           ; 2 bytes @ 0xC
   521                           
   522  002C                     enviardato0@dato:	
   523                           ; 3 bytes @ 0xC
   524                           
   525  002C                     enviardato@dato:	
   526                           ; 1 bytes @ 0xC
   527                           
   528  002C                     enviardato2@dato:	
   529                           ; 1 bytes @ 0xC
   530                           
   531  002C                     ___awdiv@divisor:	
   532                           ; 1 bytes @ 0xC
   533                           
   534  002C                     ___ftpack@arg:	
   535                           ; 2 bytes @ 0xC
   536                           
   537                           
   538                           ; 3 bytes @ 0xC
   539  002C                     	ds	1
   540  002D                     ??_enviardato:	
   541  002D                     ??_enviardato0:	
   542                           ; 1 bytes @ 0xD
   543                           
   544  002D                     ??_enviardato2:	
   545                           ; 1 bytes @ 0xD
   546                           
   547                           
   548                           ; 1 bytes @ 0xD
   549  002D                     	ds	1
   550  002E                     ___awdiv@dividend:	
   551                           
   552                           ; 2 bytes @ 0xE
   553  002E                     	ds	1
   554  002F                     enviardato0@direccion:	
   555  002F                     enviardato@direccion:	
   556                           ; 1 bytes @ 0xF
   557                           
   558  002F                     enviardato2@direccion:	
   559                           ; 1 bytes @ 0xF
   560                           
   561  002F                     ___ftpack@exp:	
   562                           ; 1 bytes @ 0xF
   563                           
   564                           
   565                           ; 1 bytes @ 0xF
   566  002F                     	ds	1
   567  0030                     ??_InitSPI:	
   568  0030                     ??_Gol:	
   569                           ; 1 bytes @ 0x10
   570                           
   571  0030                     ??_Marcador:	
   572                           ; 1 bytes @ 0x10
   573                           
   574  0030                     ??___awdiv:	
   575                           ; 1 bytes @ 0x10
   576                           
   577  0030                     ___ftpack@sign:	
   578                           ; 1 bytes @ 0x10
   579                           
   580                           
   581                           ; 1 bytes @ 0x10
   582  0030                     	ds	1
   583  0031                     ??___ftpack:	
   584  0031                     ___awdiv@counter:	
   585                           ; 1 bytes @ 0x11
   586                           
   587                           
   588                           ; 1 bytes @ 0x11
   589  0031                     	ds	1
   590  0032                     ___awdiv@sign:	
   591                           
   592                           ; 1 bytes @ 0x12
   593  0032                     	ds	1
   594  0033                     ___awdiv@quotient:	
   595                           
   596                           ; 2 bytes @ 0x13
   597  0033                     	ds	1
   598  0034                     ?___lbtoft:	
   599                           
   600                           ; 3 bytes @ 0x14
   601  0034                     	ds	1
   602  0035                     ?_barras:	
   603  0035                     barras@posicionbarra2:	
   604                           ; 1 bytes @ 0x15
   605                           
   606                           
   607                           ; 1 bytes @ 0x15
   608  0035                     	ds	1
   609  0036                     ??_barras:	
   610                           
   611                           ; 1 bytes @ 0x16
   612  0036                     	ds	1
   613  0037                     ??___lbtoft:	
   614                           
   615                           ; 1 bytes @ 0x17
   616  0037                     	ds	4
   617  003B                     barras@barrafinal1:	
   618  003B                     ___lbtoft@c:	
   619                           ; 1 bytes @ 0x1B
   620                           
   621                           
   622                           ; 1 bytes @ 0x1B
   623  003B                     	ds	1
   624  003C                     ?___ftmul:	
   625  003C                     barras@barrafinal2:	
   626                           ; 3 bytes @ 0x1C
   627                           
   628  003C                     ___ftmul@f1:	
   629                           ; 1 bytes @ 0x1C
   630                           
   631                           
   632                           ; 3 bytes @ 0x1C
   633  003C                     	ds	1
   634  003D                     barras@posicionbarra1:	
   635                           
   636                           ; 1 bytes @ 0x1D
   637  003D                     	ds	1
   638  003E                     ??_Posicioninicial:	
   639  003E                     ??_Saque:	
   640                           ; 1 bytes @ 0x1E
   641                           
   642                           
   643                           ; 1 bytes @ 0x1E
   644  003E                     	ds	1
   645  003F                     ___ftmul@f2:	
   646                           
   647                           ; 3 bytes @ 0x1F
   648  003F                     	ds	3
   649  0042                     ??___ftmul:	
   650                           
   651                           ; 1 bytes @ 0x22
   652  0042                     	ds	4
   653  0046                     ___ftmul@exp:	
   654                           
   655                           ; 1 bytes @ 0x26
   656  0046                     	ds	1
   657  0047                     ___ftmul@f3_as_product:	
   658                           
   659                           ; 3 bytes @ 0x27
   660  0047                     	ds	3
   661  004A                     ___ftmul@cntr:	
   662                           
   663                           ; 1 bytes @ 0x2A
   664  004A                     	ds	1
   665  004B                     ___ftmul@sign:	
   666                           
   667                           ; 1 bytes @ 0x2B
   668  004B                     	ds	1
   669  004C                     ?___fttol:	
   670  004C                     ___fttol@f1:	
   671                           ; 4 bytes @ 0x2C
   672                           
   673                           
   674                           ; 3 bytes @ 0x2C
   675  004C                     	ds	4
   676  0050                     ??_main:	
   677                           
   678                           ; 1 bytes @ 0x30
   679  0050                     	ds	1
   680                           
   681                           	psect	maintext
   682  0801                     __pmaintext:	
   683 ;;
   684 ;;Main: autosize = 0, tempsize = 1, incstack = 0, save=0
   685 ;;
   686 ;; *************** function _main *****************
   687 ;; Defined at:
   688 ;;		line 186 in file "Trayectoria.c"
   689 ;; Parameters:    Size  Location     Type
   690 ;;		None
   691 ;; Auto vars:     Size  Location     Type
   692 ;;		None
   693 ;; Return value:  Size  Location     Type
   694 ;;                  1    wreg      void 
   695 ;; Registers used:
   696 ;;		wreg, fsr0l, fsr0h, status,2, status,0, pclath, cstack
   697 ;; Tracked objects:
   698 ;;		On entry : B00/0
   699 ;;		On exit  : 0/0
   700 ;;		Unchanged: 0/0
   701 ;; Data sizes:     COMMON   BANK0   BANK1   BANK3   BANK2
   702 ;;      Params:         0       0       0       0       0
   703 ;;      Locals:         0       0       0       0       0
   704 ;;      Temps:          0       1       0       0       0
   705 ;;      Totals:         0       1       0       0       0
   706 ;;Total ram usage:        1 bytes
   707 ;; Hardware stack levels required when called:    7
   708 ;; This function calls:
   709 ;;		_InitES
   710 ;;		_InitSPI
   711 ;;		_InitTMR1
   712 ;;		_Juego
   713 ;;		_Posicioninicial
   714 ;;		_barras
   715 ;;		_enviardato
   716 ;;		_enviardato0
   717 ;;		_enviardato2
   718 ;;		_inicializacion
   719 ;; This function is called by:
   720 ;;		Startup code after reset
   721 ;; This function uses a non-reentrant model
   722 ;;
   723                           
   724                           
   725                           ;psect for function _main
   726  0801                     _main:	
   727                           
   728                           ;Trayectoria.c: 188: InitES();
   729                           
   730                           ;incstack = 0
   731                           ; Regs used in _main: [wreg-fsr0h+status,2+status,0+pclath+cstack]
   732  0801  160A  118A  20B7  120A  158A  	fcall	_InitES
   733                           
   734                           ;Trayectoria.c: 189: inicializacion();
   735  0806  120A  158A  227E  120A  158A  	fcall	_inicializacion
   736                           
   737                           ;Trayectoria.c: 190: InitSPI();
   738  080B  160A  118A  2366  120A  158A  	fcall	_InitSPI
   739                           
   740                           ;Trayectoria.c: 191: barras(ledbarra1,ledbarra2);
   741  0810  087D               	movf	_ledbarra2,w
   742  0811  1283               	bcf	3,5	;RP0=0, select bank0
   743  0812  1303               	bcf	3,6	;RP1=0, select bank0
   744  0813  00D0               	movwf	??_main
   745  0814  0850               	movf	??_main,w
   746  0815  00B5               	movwf	barras@posicionbarra2
   747  0816  085D               	movf	_ledbarra1,w
   748  0817  160A  118A  229A  120A  158A  	fcall	_barras
   749                           
   750                           ;Trayectoria.c: 192: enviardato(filaball,ledball);
   751  081C  1283               	bcf	3,5	;RP0=0, select bank0
   752  081D  1303               	bcf	3,6	;RP1=0, select bank0
   753  081E  085F               	movf	_ledball,w
   754  081F  00D0               	movwf	??_main
   755  0820  0850               	movf	??_main,w
   756  0821  00AC               	movwf	enviardato@dato
   757  0822  085E               	movf	_filaball,w
   758  0823  160A  118A  2146  120A  158A  	fcall	_enviardato
   759                           
   760                           ;Trayectoria.c: 193: InitTMR1();
   761  0828  160A  118A  20D1  120A  158A  	fcall	_InitTMR1
   762  082D                     l3726:	
   763                           ;Trayectoria.c: 194: while(1)
   764                           
   765                           
   766                           ;Trayectoria.c: 195: {
   767                           ;Trayectoria.c: 196: INTCONbits.RBIE=0;
   768  082D  118B               	bcf	11,3	;volatile
   769                           
   770                           ;Trayectoria.c: 197: Posicioninicial();
   771  082E  120A  158A  213E  120A  158A  	fcall	_Posicioninicial
   772                           
   773                           ;Trayectoria.c: 199: if(PORTBbits.RB2==1 || PORTBbits.RB5==1 )
   774  0833  1283               	bcf	3,5	;RP0=0, select bank0
   775  0834  1303               	bcf	3,6	;RP1=0, select bank0
   776  0835  1906               	btfsc	6,2	;volatile
   777  0836  2839               	goto	l3732
   778  0837  1E86               	btfss	6,5	;volatile
   779  0838  2849               	goto	l3742
   780  0839                     l3732:	
   781                           
   782                           ;Trayectoria.c: 200: {
   783                           ;Trayectoria.c: 201: gol1=0;
   784  0839  01E0               	clrf	_gol1
   785                           
   786                           ;Trayectoria.c: 202: gol2=0;
   787  083A  01D7               	clrf	_gol2
   788  083B                     l3738:	
   789                           ;Trayectoria.c: 203: while(saque==0)
   790                           
   791  083B  0858               	movf	_saque,w
   792  083C  1D03               	btfss	3,2
   793  083D  2848               	goto	l3740
   794                           
   795                           ;Trayectoria.c: 204: {
   796                           ;Trayectoria.c: 205: INTCONbits.RBIE=1;
   797  083E  158B               	bsf	11,3	;volatile
   798                           
   799                           ;Trayectoria.c: 206: Juego();
   800  083F  120A  118A  203B  120A  158A  	fcall	_Juego
   801                           
   802                           ;Trayectoria.c: 207: primerinicio=0;
   803  0844  1283               	bcf	3,5	;RP0=0, select bank0
   804  0845  1303               	bcf	3,6	;RP1=0, select bank0
   805  0846  01E1               	clrf	_primerinicio
   806  0847  283B               	goto	l3738
   807  0848                     l3740:	
   808                           
   809                           ;Trayectoria.c: 208: }
   810                           ;Trayectoria.c: 209: saque=0;
   811  0848  01D8               	clrf	_saque
   812  0849                     l3742:	
   813                           
   814                           ;Trayectoria.c: 210: }
   815                           ;Trayectoria.c: 211: if(puntaje1==5 || puntaje2==5)
   816  0849  3005               	movlw	5
   817  084A  0656               	xorwf	_puntaje1,w
   818  084B  1903               	btfsc	3,2
   819  084C  2851               	goto	l3746
   820  084D  3005               	movlw	5
   821  084E  0655               	xorwf	_puntaje2,w
   822  084F  1D03               	btfss	3,2
   823  0850  2855               	goto	l3748
   824  0851                     l3746:	
   825                           
   826                           ;Trayectoria.c: 212: {
   827                           ;Trayectoria.c: 213: tiempo=70;
   828  0851  3046               	movlw	70
   829  0852  00D0               	movwf	??_main
   830  0853  0850               	movf	??_main,w
   831  0854  00DB               	movwf	_tiempo
   832  0855                     l3748:	
   833                           
   834                           ;Trayectoria.c: 214: }
   835                           ;Trayectoria.c: 215: if(puntaje1==10 || puntaje2==10){
   836  0855  300A               	movlw	10
   837  0856  0656               	xorwf	_puntaje1,w
   838  0857  1903               	btfsc	3,2
   839  0858  285D               	goto	l197
   840  0859  300A               	movlw	10
   841  085A  0655               	xorwf	_puntaje2,w
   842  085B  1D03               	btfss	3,2
   843  085C  282D               	goto	l3726
   844  085D                     l197:	
   845                           
   846                           ;Trayectoria.c: 217: INTCONbits.RBIE=0;
   847  085D  118B               	bcf	11,3	;volatile
   848                           
   849                           ;Trayectoria.c: 219: enviardato0(0x01,0);
   850  085E  01AC               	clrf	enviardato0@dato
   851  085F  3001               	movlw	1
   852  0860  120A  118A  27CA  120A  158A  	fcall	_enviardato0
   853                           
   854                           ;Trayectoria.c: 220: enviardato0(0x02,0);
   855  0865  1283               	bcf	3,5	;RP0=0, select bank0
   856  0866  1303               	bcf	3,6	;RP1=0, select bank0
   857  0867  01AC               	clrf	enviardato0@dato
   858  0868  3002               	movlw	2
   859  0869  120A  118A  27CA  120A  158A  	fcall	_enviardato0
   860                           
   861                           ;Trayectoria.c: 221: enviardato0(0x03,0);
   862  086E  1283               	bcf	3,5	;RP0=0, select bank0
   863  086F  1303               	bcf	3,6	;RP1=0, select bank0
   864  0870  01AC               	clrf	enviardato0@dato
   865  0871  3003               	movlw	3
   866  0872  120A  118A  27CA  120A  158A  	fcall	_enviardato0
   867                           
   868                           ;Trayectoria.c: 222: enviardato0(0x04,0);
   869  0877  1283               	bcf	3,5	;RP0=0, select bank0
   870  0878  1303               	bcf	3,6	;RP1=0, select bank0
   871  0879  01AC               	clrf	enviardato0@dato
   872  087A  3004               	movlw	4
   873  087B  120A  118A  27CA  120A  158A  	fcall	_enviardato0
   874                           
   875                           ;Trayectoria.c: 223: enviardato0(0x05,0);
   876  0880  1283               	bcf	3,5	;RP0=0, select bank0
   877  0881  1303               	bcf	3,6	;RP1=0, select bank0
   878  0882  01AC               	clrf	enviardato0@dato
   879  0883  3005               	movlw	5
   880  0884  120A  118A  27CA  120A  158A  	fcall	_enviardato0
   881                           
   882                           ;Trayectoria.c: 224: enviardato0(0x06,0);
   883  0889  1283               	bcf	3,5	;RP0=0, select bank0
   884  088A  1303               	bcf	3,6	;RP1=0, select bank0
   885  088B  01AC               	clrf	enviardato0@dato
   886  088C  3006               	movlw	6
   887  088D  120A  118A  27CA  120A  158A  	fcall	_enviardato0
   888                           
   889                           ;Trayectoria.c: 225: enviardato0(0x07,0);
   890  0892  1283               	bcf	3,5	;RP0=0, select bank0
   891  0893  1303               	bcf	3,6	;RP1=0, select bank0
   892  0894  01AC               	clrf	enviardato0@dato
   893  0895  3007               	movlw	7
   894  0896  120A  118A  27CA  120A  158A  	fcall	_enviardato0
   895                           
   896                           ;Trayectoria.c: 226: enviardato0(0x08,0);
   897  089B  1283               	bcf	3,5	;RP0=0, select bank0
   898  089C  1303               	bcf	3,6	;RP1=0, select bank0
   899  089D  01AC               	clrf	enviardato0@dato
   900  089E  3008               	movlw	8
   901  089F  120A  118A  27CA  120A  158A  	fcall	_enviardato0
   902                           
   903                           ;Trayectoria.c: 229: enviardato2(0x07,0b01111110);
   904  08A4  307E               	movlw	126
   905  08A5  1283               	bcf	3,5	;RP0=0, select bank0
   906  08A6  1303               	bcf	3,6	;RP1=0, select bank0
   907  08A7  00D0               	movwf	??_main
   908  08A8  0850               	movf	??_main,w
   909  08A9  00AC               	movwf	enviardato2@dato
   910  08AA  3007               	movlw	7
   911  08AB  160A  118A  2167  120A  158A  	fcall	_enviardato2
   912                           
   913                           ;Trayectoria.c: 230: enviardato2(0x06,0x02);
   914  08B0  3002               	movlw	2
   915  08B1  1283               	bcf	3,5	;RP0=0, select bank0
   916  08B2  1303               	bcf	3,6	;RP1=0, select bank0
   917  08B3  00D0               	movwf	??_main
   918  08B4  0850               	movf	??_main,w
   919  08B5  00AC               	movwf	enviardato2@dato
   920  08B6  3006               	movlw	6
   921  08B7  160A  118A  2167  120A  158A  	fcall	_enviardato2
   922                           
   923                           ;Trayectoria.c: 231: enviardato2(0x05,0b00001110);
   924  08BC  300E               	movlw	14
   925  08BD  1283               	bcf	3,5	;RP0=0, select bank0
   926  08BE  1303               	bcf	3,6	;RP1=0, select bank0
   927  08BF  00D0               	movwf	??_main
   928  08C0  0850               	movf	??_main,w
   929  08C1  00AC               	movwf	enviardato2@dato
   930  08C2  3005               	movlw	5
   931  08C3  160A  118A  2167  120A  158A  	fcall	_enviardato2
   932                           
   933                           ;Trayectoria.c: 232: enviardato2(0x04,0x02);
   934  08C8  3002               	movlw	2
   935  08C9  1283               	bcf	3,5	;RP0=0, select bank0
   936  08CA  1303               	bcf	3,6	;RP1=0, select bank0
   937  08CB  00D0               	movwf	??_main
   938  08CC  0850               	movf	??_main,w
   939  08CD  00AC               	movwf	enviardato2@dato
   940  08CE  3004               	movlw	4
   941  08CF  160A  118A  2167  120A  158A  	fcall	_enviardato2
   942                           
   943                           ;Trayectoria.c: 233: enviardato2(0x03,0b01111110);
   944  08D4  307E               	movlw	126
   945  08D5  1283               	bcf	3,5	;RP0=0, select bank0
   946  08D6  1303               	bcf	3,6	;RP1=0, select bank0
   947  08D7  00D0               	movwf	??_main
   948  08D8  0850               	movf	??_main,w
   949  08D9  00AC               	movwf	enviardato2@dato
   950  08DA  3003               	movlw	3
   951  08DB  160A  118A  2167  120A  158A  	fcall	_enviardato2
   952                           
   953                           ;Trayectoria.c: 236: enviardato2(0x01,0b01111110);
   954  08E0  307E               	movlw	126
   955  08E1  1283               	bcf	3,5	;RP0=0, select bank0
   956  08E2  1303               	bcf	3,6	;RP1=0, select bank0
   957  08E3  00D0               	movwf	??_main
   958  08E4  0850               	movf	??_main,w
   959  08E5  00AC               	movwf	enviardato2@dato
   960  08E6  3001               	movlw	1
   961  08E7  160A  118A  2167  120A  158A  	fcall	_enviardato2
   962                           
   963                           ;Trayectoria.c: 237: enviardato(0x08,0);
   964  08EC  1283               	bcf	3,5	;RP0=0, select bank0
   965  08ED  1303               	bcf	3,6	;RP1=0, select bank0
   966  08EE  01AC               	clrf	enviardato@dato
   967  08EF  3008               	movlw	8
   968  08F0  160A  118A  2146  120A  158A  	fcall	_enviardato
   969                           
   970                           ;Trayectoria.c: 240: enviardato(0x07,0b01111110);
   971  08F5  307E               	movlw	126
   972  08F6  1283               	bcf	3,5	;RP0=0, select bank0
   973  08F7  1303               	bcf	3,6	;RP1=0, select bank0
   974  08F8  00D0               	movwf	??_main
   975  08F9  0850               	movf	??_main,w
   976  08FA  00AC               	movwf	enviardato@dato
   977  08FB  3007               	movlw	7
   978  08FC  160A  118A  2146  120A  158A  	fcall	_enviardato
   979                           
   980                           ;Trayectoria.c: 241: enviardato(0x06,0x20);
   981  0901  3020               	movlw	32
   982  0902  1283               	bcf	3,5	;RP0=0, select bank0
   983  0903  1303               	bcf	3,6	;RP1=0, select bank0
   984  0904  00D0               	movwf	??_main
   985  0905  0850               	movf	??_main,w
   986  0906  00AC               	movwf	enviardato@dato
   987  0907  3006               	movlw	6
   988  0908  160A  118A  2146  120A  158A  	fcall	_enviardato
   989                           
   990                           ;Trayectoria.c: 242: enviardato(0x05,0x10);
   991  090D  3010               	movlw	16
   992  090E  1283               	bcf	3,5	;RP0=0, select bank0
   993  090F  1303               	bcf	3,6	;RP1=0, select bank0
   994  0910  00D0               	movwf	??_main
   995  0911  0850               	movf	??_main,w
   996  0912  00AC               	movwf	enviardato@dato
   997  0913  3005               	movlw	5
   998  0914  160A  118A  2146  120A  158A  	fcall	_enviardato
   999                           
  1000                           ;Trayectoria.c: 243: enviardato(0x04,0x08);
  1001  0919  3008               	movlw	8
  1002  091A  1283               	bcf	3,5	;RP0=0, select bank0
  1003  091B  1303               	bcf	3,6	;RP1=0, select bank0
  1004  091C  00D0               	movwf	??_main
  1005  091D  0850               	movf	??_main,w
  1006  091E  00AC               	movwf	enviardato@dato
  1007  091F  3004               	movlw	4
  1008  0920  160A  118A  2146  120A  158A  	fcall	_enviardato
  1009                           
  1010                           ;Trayectoria.c: 244: enviardato(0x03,0x04);
  1011  0925  3004               	movlw	4
  1012  0926  1283               	bcf	3,5	;RP0=0, select bank0
  1013  0927  1303               	bcf	3,6	;RP1=0, select bank0
  1014  0928  00D0               	movwf	??_main
  1015  0929  0850               	movf	??_main,w
  1016  092A  00AC               	movwf	enviardato@dato
  1017  092B  3003               	movlw	3
  1018  092C  160A  118A  2146  120A  158A  	fcall	_enviardato
  1019                           
  1020                           ;Trayectoria.c: 245: enviardato(0x02,0b01111110);
  1021  0931  307E               	movlw	126
  1022  0932  1283               	bcf	3,5	;RP0=0, select bank0
  1023  0933  1303               	bcf	3,6	;RP1=0, select bank0
  1024  0934  00D0               	movwf	??_main
  1025  0935  0850               	movf	??_main,w
  1026  0936  00AC               	movwf	enviardato@dato
  1027  0937  3002               	movlw	2
  1028  0938  160A  118A  2146  120A  158A  	fcall	_enviardato
  1029  093D                     l198:	
  1030                           ;Trayectoria.c: 248: while(1);
  1031                           
  1032  093D  293D               	goto	l198
  1033  093E                     __end_of_main:	
  1034                           
  1035                           	psect	text1
  1036  0A7E                     __ptext1:	
  1037 ;; *************** function _inicializacion *****************
  1038 ;; Defined at:
  1039 ;;		line 27 in file "LCD.h"
  1040 ;; Parameters:    Size  Location     Type
  1041 ;;		None
  1042 ;; Auto vars:     Size  Location     Type
  1043 ;;		None
  1044 ;; Return value:  Size  Location     Type
  1045 ;;                  1    wreg      void 
  1046 ;; Registers used:
  1047 ;;		wreg
  1048 ;; Tracked objects:
  1049 ;;		On entry : 0/0
  1050 ;;		On exit  : 0/0
  1051 ;;		Unchanged: 0/0
  1052 ;; Data sizes:     COMMON   BANK0   BANK1   BANK3   BANK2
  1053 ;;      Params:         0       0       0       0       0
  1054 ;;      Locals:         0       0       0       0       0
  1055 ;;      Temps:          0       2       0       0       0
  1056 ;;      Totals:         0       2       0       0       0
  1057 ;;Total ram usage:        2 bytes
  1058 ;; Hardware stack levels used:    1
  1059 ;; Hardware stack levels required when called:    3
  1060 ;; This function calls:
  1061 ;;		Nothing
  1062 ;; This function is called by:
  1063 ;;		_main
  1064 ;; This function uses a non-reentrant model
  1065 ;;
  1066                           
  1067                           
  1068                           ;psect for function _inicializacion
  1069  0A7E                     _inicializacion:	
  1070                           
  1071                           ;incstack = 0
  1072                           ; Regs used in _inicializacion: [wreg]
  1073  0A7E  30C3               	movlw	195
  1074  0A7F  1283               	bcf	3,5	;RP0=0, select bank0
  1075  0A80  1303               	bcf	3,6	;RP1=0, select bank0
  1076  0A81  00AD               	movwf	??_inicializacion+1
  1077  0A82  30CC               	movlw	204
  1078  0A83  00AC               	movwf	??_inicializacion
  1079  0A84                     u4157:	
  1080  0A84  0BAC               	decfsz	??_inicializacion,f
  1081  0A85  2A84               	goto	u4157
  1082  0A86  0BAD               	decfsz	??_inicializacion+1,f
  1083  0A87  2A84               	goto	u4157
  1084  0A88  0000               	nop
  1085                           
  1086                           ;LCD.h: 29: PORTBbits.RB6=0;
  1087  0A89  1283               	bcf	3,5	;RP0=0, select bank0
  1088  0A8A  1303               	bcf	3,6	;RP1=0, select bank0
  1089  0A8B  1306               	bcf	6,6	;volatile
  1090                           
  1091                           ;LCD.h: 30: PORTBbits.RB5=0;
  1092  0A8C  1286               	bcf	6,5	;volatile
  1093                           
  1094                           ;LCD.h: 31: PORTBbits.RB0=0;
  1095  0A8D  1006               	bcf	6,0	;volatile
  1096                           
  1097                           ;LCD.h: 32: PORTBbits.RB1=0;
  1098  0A8E  1086               	bcf	6,1	;volatile
  1099                           
  1100                           ;LCD.h: 33: PORTBbits.RB2=1;
  1101  0A8F  1506               	bsf	6,2	;volatile
  1102                           
  1103                           ;LCD.h: 34: PORTBbits.RB3=1;
  1104  0A90  1586               	bsf	6,3	;volatile
  1105                           
  1106                           ;LCD.h: 35: PORTBbits.RB4=1;
  1107  0A91  1606               	bsf	6,4	;volatile
  1108                           
  1109                           ;LCD.h: 36: _delay((unsigned long)((5)*(20000000/4000.0)));
  1110  0A92  3021               	movlw	33
  1111  0A93  1283               	bcf	3,5	;RP0=0, select bank0
  1112  0A94  1303               	bcf	3,6	;RP1=0, select bank0
  1113  0A95  00AD               	movwf	??_inicializacion+1
  1114  0A96  3075               	movlw	117
  1115  0A97  00AC               	movwf	??_inicializacion
  1116  0A98                     u4167:	
  1117  0A98  0BAC               	decfsz	??_inicializacion,f
  1118  0A99  2A98               	goto	u4167
  1119  0A9A  0BAD               	decfsz	??_inicializacion+1,f
  1120  0A9B  2A98               	goto	u4167
  1121  0A9C  2A9D               	nop2
  1122                           
  1123                           ;LCD.h: 37: PORTBbits.RB4=0;
  1124  0A9D  1283               	bcf	3,5	;RP0=0, select bank0
  1125  0A9E  1303               	bcf	3,6	;RP1=0, select bank0
  1126  0A9F  1206               	bcf	6,4	;volatile
  1127                           
  1128                           ;LCD.h: 38: _delay((unsigned long)((5)*(20000000/4000.0)));
  1129  0AA0  3021               	movlw	33
  1130  0AA1  1283               	bcf	3,5	;RP0=0, select bank0
  1131  0AA2  1303               	bcf	3,6	;RP1=0, select bank0
  1132  0AA3  00AD               	movwf	??_inicializacion+1
  1133  0AA4  3075               	movlw	117
  1134  0AA5  00AC               	movwf	??_inicializacion
  1135  0AA6                     u4177:	
  1136  0AA6  0BAC               	decfsz	??_inicializacion,f
  1137  0AA7  2AA6               	goto	u4177
  1138  0AA8  0BAD               	decfsz	??_inicializacion+1,f
  1139  0AA9  2AA6               	goto	u4177
  1140  0AAA  2AAB               	nop2
  1141                           
  1142                           ;LCD.h: 39: PORTBbits.RB6=0;
  1143  0AAB  1283               	bcf	3,5	;RP0=0, select bank0
  1144  0AAC  1303               	bcf	3,6	;RP1=0, select bank0
  1145  0AAD  1306               	bcf	6,6	;volatile
  1146                           
  1147                           ;LCD.h: 40: PORTBbits.RB5=0;
  1148  0AAE  1286               	bcf	6,5	;volatile
  1149                           
  1150                           ;LCD.h: 41: PORTBbits.RB0=0;
  1151  0AAF  1006               	bcf	6,0	;volatile
  1152                           
  1153                           ;LCD.h: 42: PORTBbits.RB1=0;
  1154  0AB0  1086               	bcf	6,1	;volatile
  1155                           
  1156                           ;LCD.h: 43: PORTBbits.RB2=1;
  1157  0AB1  1506               	bsf	6,2	;volatile
  1158                           
  1159                           ;LCD.h: 44: PORTBbits.RB3=1;
  1160  0AB2  1586               	bsf	6,3	;volatile
  1161                           
  1162                           ;LCD.h: 45: PORTBbits.RB4=1;
  1163  0AB3  1606               	bsf	6,4	;volatile
  1164                           
  1165                           ;LCD.h: 46: _delay((unsigned long)((5)*(20000000/4000.0)));
  1166  0AB4  3021               	movlw	33
  1167  0AB5  1283               	bcf	3,5	;RP0=0, select bank0
  1168  0AB6  1303               	bcf	3,6	;RP1=0, select bank0
  1169  0AB7  00AD               	movwf	??_inicializacion+1
  1170  0AB8  3075               	movlw	117
  1171  0AB9  00AC               	movwf	??_inicializacion
  1172  0ABA                     u4187:	
  1173  0ABA  0BAC               	decfsz	??_inicializacion,f
  1174  0ABB  2ABA               	goto	u4187
  1175  0ABC  0BAD               	decfsz	??_inicializacion+1,f
  1176  0ABD  2ABA               	goto	u4187
  1177  0ABE  2ABF               	nop2
  1178                           
  1179                           ;LCD.h: 47: PORTBbits.RB4=0;
  1180  0ABF  1283               	bcf	3,5	;RP0=0, select bank0
  1181  0AC0  1303               	bcf	3,6	;RP1=0, select bank0
  1182  0AC1  1206               	bcf	6,4	;volatile
  1183                           
  1184                           ;LCD.h: 48: _delay((unsigned long)((5)*(20000000/4000.0)));
  1185  0AC2  3021               	movlw	33
  1186  0AC3  1283               	bcf	3,5	;RP0=0, select bank0
  1187  0AC4  1303               	bcf	3,6	;RP1=0, select bank0
  1188  0AC5  00AD               	movwf	??_inicializacion+1
  1189  0AC6  3075               	movlw	117
  1190  0AC7  00AC               	movwf	??_inicializacion
  1191  0AC8                     u4197:	
  1192  0AC8  0BAC               	decfsz	??_inicializacion,f
  1193  0AC9  2AC8               	goto	u4197
  1194  0ACA  0BAD               	decfsz	??_inicializacion+1,f
  1195  0ACB  2AC8               	goto	u4197
  1196  0ACC  2ACD               	nop2
  1197                           
  1198                           ;LCD.h: 49: PORTBbits.RB6=0;
  1199  0ACD  1283               	bcf	3,5	;RP0=0, select bank0
  1200  0ACE  1303               	bcf	3,6	;RP1=0, select bank0
  1201  0ACF  1306               	bcf	6,6	;volatile
  1202                           
  1203                           ;LCD.h: 50: PORTBbits.RB5=0;
  1204  0AD0  1286               	bcf	6,5	;volatile
  1205                           
  1206                           ;LCD.h: 51: PORTBbits.RB0=0;
  1207  0AD1  1006               	bcf	6,0	;volatile
  1208                           
  1209                           ;LCD.h: 52: PORTBbits.RB1=0;
  1210  0AD2  1086               	bcf	6,1	;volatile
  1211                           
  1212                           ;LCD.h: 53: PORTBbits.RB2=1;
  1213  0AD3  1506               	bsf	6,2	;volatile
  1214                           
  1215                           ;LCD.h: 54: PORTBbits.RB3=0;
  1216  0AD4  1186               	bcf	6,3	;volatile
  1217                           
  1218                           ;LCD.h: 55: PORTBbits.RB4=1;
  1219  0AD5  1606               	bsf	6,4	;volatile
  1220                           
  1221                           ;LCD.h: 56: _delay((unsigned long)((5)*(20000000/4000.0)));
  1222  0AD6  3021               	movlw	33
  1223  0AD7  1283               	bcf	3,5	;RP0=0, select bank0
  1224  0AD8  1303               	bcf	3,6	;RP1=0, select bank0
  1225  0AD9  00AD               	movwf	??_inicializacion+1
  1226  0ADA  3075               	movlw	117
  1227  0ADB  00AC               	movwf	??_inicializacion
  1228  0ADC                     u4207:	
  1229  0ADC  0BAC               	decfsz	??_inicializacion,f
  1230  0ADD  2ADC               	goto	u4207
  1231  0ADE  0BAD               	decfsz	??_inicializacion+1,f
  1232  0ADF  2ADC               	goto	u4207
  1233  0AE0  2AE1               	nop2
  1234                           
  1235                           ;LCD.h: 57: PORTBbits.RB4=0;
  1236  0AE1  1283               	bcf	3,5	;RP0=0, select bank0
  1237  0AE2  1303               	bcf	3,6	;RP1=0, select bank0
  1238  0AE3  1206               	bcf	6,4	;volatile
  1239                           
  1240                           ;LCD.h: 58: _delay((unsigned long)((5)*(20000000/4000.0)));
  1241  0AE4  3021               	movlw	33
  1242  0AE5  1283               	bcf	3,5	;RP0=0, select bank0
  1243  0AE6  1303               	bcf	3,6	;RP1=0, select bank0
  1244  0AE7  00AD               	movwf	??_inicializacion+1
  1245  0AE8  3075               	movlw	117
  1246  0AE9  00AC               	movwf	??_inicializacion
  1247  0AEA                     u4217:	
  1248  0AEA  0BAC               	decfsz	??_inicializacion,f
  1249  0AEB  2AEA               	goto	u4217
  1250  0AEC  0BAD               	decfsz	??_inicializacion+1,f
  1251  0AED  2AEA               	goto	u4217
  1252  0AEE  2AEF               	nop2
  1253                           
  1254                           ;LCD.h: 59: PORTBbits.RB6=0;
  1255  0AEF  1283               	bcf	3,5	;RP0=0, select bank0
  1256  0AF0  1303               	bcf	3,6	;RP1=0, select bank0
  1257  0AF1  1306               	bcf	6,6	;volatile
  1258                           
  1259                           ;LCD.h: 60: PORTBbits.RB5=0;
  1260  0AF2  1286               	bcf	6,5	;volatile
  1261                           
  1262                           ;LCD.h: 61: PORTBbits.RB0=0;
  1263  0AF3  1006               	bcf	6,0	;volatile
  1264                           
  1265                           ;LCD.h: 62: PORTBbits.RB1=0;
  1266  0AF4  1086               	bcf	6,1	;volatile
  1267                           
  1268                           ;LCD.h: 63: PORTBbits.RB2=1;
  1269  0AF5  1506               	bsf	6,2	;volatile
  1270                           
  1271                           ;LCD.h: 64: PORTBbits.RB3=0;
  1272  0AF6  1186               	bcf	6,3	;volatile
  1273                           
  1274                           ;LCD.h: 65: PORTBbits.RB4=1;
  1275  0AF7  1606               	bsf	6,4	;volatile
  1276                           
  1277                           ;LCD.h: 66: _delay((unsigned long)((5)*(20000000/4000.0)));
  1278  0AF8  3021               	movlw	33
  1279  0AF9  1283               	bcf	3,5	;RP0=0, select bank0
  1280  0AFA  1303               	bcf	3,6	;RP1=0, select bank0
  1281  0AFB  00AD               	movwf	??_inicializacion+1
  1282  0AFC  3075               	movlw	117
  1283  0AFD  00AC               	movwf	??_inicializacion
  1284  0AFE                     u4227:	
  1285  0AFE  0BAC               	decfsz	??_inicializacion,f
  1286  0AFF  2AFE               	goto	u4227
  1287  0B00  0BAD               	decfsz	??_inicializacion+1,f
  1288  0B01  2AFE               	goto	u4227
  1289  0B02  2B03               	nop2
  1290                           
  1291                           ;LCD.h: 67: PORTBbits.RB4=0;
  1292  0B03  1283               	bcf	3,5	;RP0=0, select bank0
  1293  0B04  1303               	bcf	3,6	;RP1=0, select bank0
  1294  0B05  1206               	bcf	6,4	;volatile
  1295                           
  1296                           ;LCD.h: 68: PORTBbits.RB6=0;
  1297  0B06  1306               	bcf	6,6	;volatile
  1298                           
  1299                           ;LCD.h: 69: PORTBbits.RB5=0;
  1300  0B07  1286               	bcf	6,5	;volatile
  1301                           
  1302                           ;LCD.h: 70: PORTBbits.RB0=1;
  1303  0B08  1406               	bsf	6,0	;volatile
  1304                           
  1305                           ;LCD.h: 71: PORTBbits.RB1=1;
  1306  0B09  1486               	bsf	6,1	;volatile
  1307                           
  1308                           ;LCD.h: 72: PORTBbits.RB4=1;
  1309  0B0A  1606               	bsf	6,4	;volatile
  1310                           
  1311                           ;LCD.h: 73: _delay((unsigned long)((5)*(20000000/4000.0)));
  1312  0B0B  3021               	movlw	33
  1313  0B0C  1283               	bcf	3,5	;RP0=0, select bank0
  1314  0B0D  1303               	bcf	3,6	;RP1=0, select bank0
  1315  0B0E  00AD               	movwf	??_inicializacion+1
  1316  0B0F  3075               	movlw	117
  1317  0B10  00AC               	movwf	??_inicializacion
  1318  0B11                     u4237:	
  1319  0B11  0BAC               	decfsz	??_inicializacion,f
  1320  0B12  2B11               	goto	u4237
  1321  0B13  0BAD               	decfsz	??_inicializacion+1,f
  1322  0B14  2B11               	goto	u4237
  1323  0B15  2B16               	nop2
  1324                           
  1325                           ;LCD.h: 74: PORTBbits.RB4=0;
  1326  0B16  1283               	bcf	3,5	;RP0=0, select bank0
  1327  0B17  1303               	bcf	3,6	;RP1=0, select bank0
  1328  0B18  1206               	bcf	6,4	;volatile
  1329                           
  1330                           ;LCD.h: 75: _delay((unsigned long)((5)*(20000000/4000.0)));
  1331  0B19  3021               	movlw	33
  1332  0B1A  1283               	bcf	3,5	;RP0=0, select bank0
  1333  0B1B  1303               	bcf	3,6	;RP1=0, select bank0
  1334  0B1C  00AD               	movwf	??_inicializacion+1
  1335  0B1D  3075               	movlw	117
  1336  0B1E  00AC               	movwf	??_inicializacion
  1337  0B1F                     u4247:	
  1338  0B1F  0BAC               	decfsz	??_inicializacion,f
  1339  0B20  2B1F               	goto	u4247
  1340  0B21  0BAD               	decfsz	??_inicializacion+1,f
  1341  0B22  2B1F               	goto	u4247
  1342  0B23  2B24               	nop2
  1343                           
  1344                           ;LCD.h: 76: PORTBbits.RB6=0;
  1345  0B24  1283               	bcf	3,5	;RP0=0, select bank0
  1346  0B25  1303               	bcf	3,6	;RP1=0, select bank0
  1347  0B26  1306               	bcf	6,6	;volatile
  1348                           
  1349                           ;LCD.h: 77: PORTBbits.RB5=0;
  1350  0B27  1286               	bcf	6,5	;volatile
  1351                           
  1352                           ;LCD.h: 78: PORTBbits.RB0=0;
  1353  0B28  1006               	bcf	6,0	;volatile
  1354                           
  1355                           ;LCD.h: 79: PORTBbits.RB1=0;
  1356  0B29  1086               	bcf	6,1	;volatile
  1357                           
  1358                           ;LCD.h: 80: PORTBbits.RB2=0;
  1359  0B2A  1106               	bcf	6,2	;volatile
  1360                           
  1361                           ;LCD.h: 81: PORTBbits.RB3=0;
  1362  0B2B  1186               	bcf	6,3	;volatile
  1363                           
  1364                           ;LCD.h: 82: PORTBbits.RB4=1;
  1365  0B2C  1606               	bsf	6,4	;volatile
  1366                           
  1367                           ;LCD.h: 83: _delay((unsigned long)((5)*(20000000/4000.0)));
  1368  0B2D  3021               	movlw	33
  1369  0B2E  1283               	bcf	3,5	;RP0=0, select bank0
  1370  0B2F  1303               	bcf	3,6	;RP1=0, select bank0
  1371  0B30  00AD               	movwf	??_inicializacion+1
  1372  0B31  3075               	movlw	117
  1373  0B32  00AC               	movwf	??_inicializacion
  1374  0B33                     u4257:	
  1375  0B33  0BAC               	decfsz	??_inicializacion,f
  1376  0B34  2B33               	goto	u4257
  1377  0B35  0BAD               	decfsz	??_inicializacion+1,f
  1378  0B36  2B33               	goto	u4257
  1379  0B37  2B38               	nop2
  1380                           
  1381                           ;LCD.h: 84: PORTBbits.RB4=0;
  1382  0B38  1283               	bcf	3,5	;RP0=0, select bank0
  1383  0B39  1303               	bcf	3,6	;RP1=0, select bank0
  1384  0B3A  1206               	bcf	6,4	;volatile
  1385                           
  1386                           ;LCD.h: 85: PORTBbits.RB6=0;
  1387  0B3B  1306               	bcf	6,6	;volatile
  1388                           
  1389                           ;LCD.h: 86: PORTBbits.RB5=0;
  1390  0B3C  1286               	bcf	6,5	;volatile
  1391                           
  1392                           ;LCD.h: 87: PORTBbits.RB0=1;
  1393  0B3D  1406               	bsf	6,0	;volatile
  1394                           
  1395                           ;LCD.h: 88: PORTBbits.RB1=0;
  1396  0B3E  1086               	bcf	6,1	;volatile
  1397                           
  1398                           ;LCD.h: 89: PORTBbits.RB2=0;
  1399  0B3F  1106               	bcf	6,2	;volatile
  1400                           
  1401                           ;LCD.h: 90: PORTBbits.RB3=0;
  1402  0B40  1186               	bcf	6,3	;volatile
  1403                           
  1404                           ;LCD.h: 91: PORTBbits.RB4=1;
  1405  0B41  1606               	bsf	6,4	;volatile
  1406                           
  1407                           ;LCD.h: 92: _delay((unsigned long)((5)*(20000000/4000.0)));
  1408  0B42  3021               	movlw	33
  1409  0B43  1283               	bcf	3,5	;RP0=0, select bank0
  1410  0B44  1303               	bcf	3,6	;RP1=0, select bank0
  1411  0B45  00AD               	movwf	??_inicializacion+1
  1412  0B46  3075               	movlw	117
  1413  0B47  00AC               	movwf	??_inicializacion
  1414  0B48                     u4267:	
  1415  0B48  0BAC               	decfsz	??_inicializacion,f
  1416  0B49  2B48               	goto	u4267
  1417  0B4A  0BAD               	decfsz	??_inicializacion+1,f
  1418  0B4B  2B48               	goto	u4267
  1419  0B4C  2B4D               	nop2
  1420                           
  1421                           ;LCD.h: 93: PORTBbits.RB4=0;
  1422  0B4D  1283               	bcf	3,5	;RP0=0, select bank0
  1423  0B4E  1303               	bcf	3,6	;RP1=0, select bank0
  1424  0B4F  1206               	bcf	6,4	;volatile
  1425                           
  1426                           ;LCD.h: 94: _delay((unsigned long)((5)*(20000000/4000.0)));
  1427  0B50  3021               	movlw	33
  1428  0B51  1283               	bcf	3,5	;RP0=0, select bank0
  1429  0B52  1303               	bcf	3,6	;RP1=0, select bank0
  1430  0B53  00AD               	movwf	??_inicializacion+1
  1431  0B54  3075               	movlw	117
  1432  0B55  00AC               	movwf	??_inicializacion
  1433  0B56                     u4277:	
  1434  0B56  0BAC               	decfsz	??_inicializacion,f
  1435  0B57  2B56               	goto	u4277
  1436  0B58  0BAD               	decfsz	??_inicializacion+1,f
  1437  0B59  2B56               	goto	u4277
  1438  0B5A  2B5B               	nop2
  1439                           
  1440                           ;LCD.h: 95: PORTBbits.RB6=0;
  1441  0B5B  1283               	bcf	3,5	;RP0=0, select bank0
  1442  0B5C  1303               	bcf	3,6	;RP1=0, select bank0
  1443  0B5D  1306               	bcf	6,6	;volatile
  1444                           
  1445                           ;LCD.h: 96: PORTBbits.RB5=0;
  1446  0B5E  1286               	bcf	6,5	;volatile
  1447                           
  1448                           ;LCD.h: 97: PORTBbits.RB0=0;
  1449  0B5F  1006               	bcf	6,0	;volatile
  1450                           
  1451                           ;LCD.h: 98: PORTBbits.RB1=0;
  1452  0B60  1086               	bcf	6,1	;volatile
  1453                           
  1454                           ;LCD.h: 99: PORTBbits.RB2=0;
  1455  0B61  1106               	bcf	6,2	;volatile
  1456                           
  1457                           ;LCD.h: 100: PORTBbits.RB3=0;
  1458  0B62  1186               	bcf	6,3	;volatile
  1459                           
  1460                           ;LCD.h: 101: PORTBbits.RB4=1;
  1461  0B63  1606               	bsf	6,4	;volatile
  1462                           
  1463                           ;LCD.h: 102: _delay((unsigned long)((5)*(20000000/4000.0)));
  1464  0B64  3021               	movlw	33
  1465  0B65  1283               	bcf	3,5	;RP0=0, select bank0
  1466  0B66  1303               	bcf	3,6	;RP1=0, select bank0
  1467  0B67  00AD               	movwf	??_inicializacion+1
  1468  0B68  3075               	movlw	117
  1469  0B69  00AC               	movwf	??_inicializacion
  1470  0B6A                     u4287:	
  1471  0B6A  0BAC               	decfsz	??_inicializacion,f
  1472  0B6B  2B6A               	goto	u4287
  1473  0B6C  0BAD               	decfsz	??_inicializacion+1,f
  1474  0B6D  2B6A               	goto	u4287
  1475  0B6E  2B6F               	nop2
  1476                           
  1477                           ;LCD.h: 103: PORTBbits.RB4=0;
  1478  0B6F  1283               	bcf	3,5	;RP0=0, select bank0
  1479  0B70  1303               	bcf	3,6	;RP1=0, select bank0
  1480  0B71  1206               	bcf	6,4	;volatile
  1481                           
  1482                           ;LCD.h: 104: PORTBbits.RB6=0;
  1483  0B72  1306               	bcf	6,6	;volatile
  1484                           
  1485                           ;LCD.h: 105: PORTBbits.RB5=0;
  1486  0B73  1286               	bcf	6,5	;volatile
  1487                           
  1488                           ;LCD.h: 106: PORTBbits.RB0=0;
  1489  0B74  1006               	bcf	6,0	;volatile
  1490                           
  1491                           ;LCD.h: 107: PORTBbits.RB1=0;
  1492  0B75  1086               	bcf	6,1	;volatile
  1493                           
  1494                           ;LCD.h: 108: PORTBbits.RB2=0;
  1495  0B76  1106               	bcf	6,2	;volatile
  1496                           
  1497                           ;LCD.h: 109: PORTBbits.RB3=1;
  1498  0B77  1586               	bsf	6,3	;volatile
  1499                           
  1500                           ;LCD.h: 110: PORTBbits.RB4=1;
  1501  0B78  1606               	bsf	6,4	;volatile
  1502                           
  1503                           ;LCD.h: 111: _delay((unsigned long)((5)*(20000000/4000.0)));
  1504  0B79  3021               	movlw	33
  1505  0B7A  1283               	bcf	3,5	;RP0=0, select bank0
  1506  0B7B  1303               	bcf	3,6	;RP1=0, select bank0
  1507  0B7C  00AD               	movwf	??_inicializacion+1
  1508  0B7D  3075               	movlw	117
  1509  0B7E  00AC               	movwf	??_inicializacion
  1510  0B7F                     u4297:	
  1511  0B7F  0BAC               	decfsz	??_inicializacion,f
  1512  0B80  2B7F               	goto	u4297
  1513  0B81  0BAD               	decfsz	??_inicializacion+1,f
  1514  0B82  2B7F               	goto	u4297
  1515  0B83  2B84               	nop2
  1516                           
  1517                           ;LCD.h: 112: PORTBbits.RB4=0;
  1518  0B84  1283               	bcf	3,5	;RP0=0, select bank0
  1519  0B85  1303               	bcf	3,6	;RP1=0, select bank0
  1520  0B86  1206               	bcf	6,4	;volatile
  1521                           
  1522                           ;LCD.h: 113: _delay((unsigned long)((5)*(20000000/4000.0)));
  1523  0B87  3021               	movlw	33
  1524  0B88  1283               	bcf	3,5	;RP0=0, select bank0
  1525  0B89  1303               	bcf	3,6	;RP1=0, select bank0
  1526  0B8A  00AD               	movwf	??_inicializacion+1
  1527  0B8B  3075               	movlw	117
  1528  0B8C  00AC               	movwf	??_inicializacion
  1529  0B8D                     u4307:	
  1530  0B8D  0BAC               	decfsz	??_inicializacion,f
  1531  0B8E  2B8D               	goto	u4307
  1532  0B8F  0BAD               	decfsz	??_inicializacion+1,f
  1533  0B90  2B8D               	goto	u4307
  1534  0B91  2B92               	nop2
  1535                           
  1536                           ;LCD.h: 114: PORTBbits.RB6=0;
  1537  0B92  1283               	bcf	3,5	;RP0=0, select bank0
  1538  0B93  1303               	bcf	3,6	;RP1=0, select bank0
  1539  0B94  1306               	bcf	6,6	;volatile
  1540                           
  1541                           ;LCD.h: 115: PORTBbits.RB5=0;
  1542  0B95  1286               	bcf	6,5	;volatile
  1543                           
  1544                           ;LCD.h: 116: PORTBbits.RB0=0;
  1545  0B96  1006               	bcf	6,0	;volatile
  1546                           
  1547                           ;LCD.h: 117: PORTBbits.RB1=0;
  1548  0B97  1086               	bcf	6,1	;volatile
  1549                           
  1550                           ;LCD.h: 118: PORTBbits.RB2=0;
  1551  0B98  1106               	bcf	6,2	;volatile
  1552                           
  1553                           ;LCD.h: 119: PORTBbits.RB3=0;
  1554  0B99  1186               	bcf	6,3	;volatile
  1555                           
  1556                           ;LCD.h: 120: PORTBbits.RB4=1;
  1557  0B9A  1606               	bsf	6,4	;volatile
  1558                           
  1559                           ;LCD.h: 121: _delay((unsigned long)((5)*(20000000/4000.0)));
  1560  0B9B  3021               	movlw	33
  1561  0B9C  1283               	bcf	3,5	;RP0=0, select bank0
  1562  0B9D  1303               	bcf	3,6	;RP1=0, select bank0
  1563  0B9E  00AD               	movwf	??_inicializacion+1
  1564  0B9F  3075               	movlw	117
  1565  0BA0  00AC               	movwf	??_inicializacion
  1566  0BA1                     u4317:	
  1567  0BA1  0BAC               	decfsz	??_inicializacion,f
  1568  0BA2  2BA1               	goto	u4317
  1569  0BA3  0BAD               	decfsz	??_inicializacion+1,f
  1570  0BA4  2BA1               	goto	u4317
  1571  0BA5  2BA6               	nop2
  1572                           
  1573                           ;LCD.h: 122: PORTBbits.RB4=0;
  1574  0BA6  1283               	bcf	3,5	;RP0=0, select bank0
  1575  0BA7  1303               	bcf	3,6	;RP1=0, select bank0
  1576  0BA8  1206               	bcf	6,4	;volatile
  1577                           
  1578                           ;LCD.h: 123: PORTBbits.RB6=0;
  1579  0BA9  1306               	bcf	6,6	;volatile
  1580                           
  1581                           ;LCD.h: 124: PORTBbits.RB5=0;
  1582  0BAA  1286               	bcf	6,5	;volatile
  1583                           
  1584                           ;LCD.h: 125: PORTBbits.RB0=1;
  1585  0BAB  1406               	bsf	6,0	;volatile
  1586                           
  1587                           ;LCD.h: 126: PORTBbits.RB1=1;
  1588  0BAC  1486               	bsf	6,1	;volatile
  1589                           
  1590                           ;LCD.h: 127: PORTBbits.RB2=1;
  1591  0BAD  1506               	bsf	6,2	;volatile
  1592                           
  1593                           ;LCD.h: 128: PORTBbits.RB3=0;
  1594  0BAE  1186               	bcf	6,3	;volatile
  1595                           
  1596                           ;LCD.h: 129: PORTBbits.RB4=1;
  1597  0BAF  1606               	bsf	6,4	;volatile
  1598                           
  1599                           ;LCD.h: 130: _delay((unsigned long)((5)*(20000000/4000.0)));
  1600  0BB0  3021               	movlw	33
  1601  0BB1  1283               	bcf	3,5	;RP0=0, select bank0
  1602  0BB2  1303               	bcf	3,6	;RP1=0, select bank0
  1603  0BB3  00AD               	movwf	??_inicializacion+1
  1604  0BB4  3075               	movlw	117
  1605  0BB5  00AC               	movwf	??_inicializacion
  1606  0BB6                     u4327:	
  1607  0BB6  0BAC               	decfsz	??_inicializacion,f
  1608  0BB7  2BB6               	goto	u4327
  1609  0BB8  0BAD               	decfsz	??_inicializacion+1,f
  1610  0BB9  2BB6               	goto	u4327
  1611  0BBA  2BBB               	nop2
  1612                           
  1613                           ;LCD.h: 131: PORTBbits.RB4=0;
  1614  0BBB  1283               	bcf	3,5	;RP0=0, select bank0
  1615  0BBC  1303               	bcf	3,6	;RP1=0, select bank0
  1616  0BBD  1206               	bcf	6,4	;volatile
  1617  0BBE  0008               	return
  1618  0BBF                     __end_of_inicializacion:	
  1619                           
  1620                           	psect	text2
  1621  093E                     __ptext2:	
  1622 ;; *************** function _Posicioninicial *****************
  1623 ;; Defined at:
  1624 ;;		line 391 in file "Trayectoria.c"
  1625 ;; Parameters:    Size  Location     Type
  1626 ;;		None
  1627 ;; Auto vars:     Size  Location     Type
  1628 ;;		None
  1629 ;; Return value:  Size  Location     Type
  1630 ;;                  1    wreg      void 
  1631 ;; Registers used:
  1632 ;;		wreg, status,2, status,0, pclath, cstack
  1633 ;; Tracked objects:
  1634 ;;		On entry : 0/0
  1635 ;;		On exit  : 0/0
  1636 ;;		Unchanged: 0/0
  1637 ;; Data sizes:     COMMON   BANK0   BANK1   BANK3   BANK2
  1638 ;;      Params:         0       0       0       0       0
  1639 ;;      Locals:         0       0       0       0       0
  1640 ;;      Temps:          0       3       0       0       0
  1641 ;;      Totals:         0       3       0       0       0
  1642 ;;Total ram usage:        3 bytes
  1643 ;; Hardware stack levels used:    1
  1644 ;; Hardware stack levels required when called:    5
  1645 ;; This function calls:
  1646 ;;		___awdiv
  1647 ;;		_barras
  1648 ;;		_enviardato
  1649 ;;		_enviardato2
  1650 ;; This function is called by:
  1651 ;;		_main
  1652 ;; This function uses a non-reentrant model
  1653 ;;
  1654                           
  1655                           
  1656                           ;psect for function _Posicioninicial
  1657  093E                     _Posicioninicial:	
  1658                           
  1659                           ;Trayectoria.c: 393: INTCONbits.RBIE=0;
  1660                           
  1661                           ;incstack = 0
  1662                           ; Regs used in _Posicioninicial: [wreg+status,2+status,0+pclath+cstack]
  1663  093E  118B               	bcf	11,3	;volatile
  1664                           
  1665                           ;Trayectoria.c: 394: if(gol1==1 || primerinicio==1)
  1666  093F  1283               	bcf	3,5	;RP0=0, select bank0
  1667  0940  1303               	bcf	3,6	;RP1=0, select bank0
  1668  0941  0360               	decf	_gol1,w
  1669  0942  1D03               	btfss	3,2
  1670  0943  0361               	decf	_primerinicio,w
  1671  0944  1D03               	btfss	3,2
  1672  0945  29E0               	goto	l2954
  1673                           
  1674                           ;Trayectoria.c: 395: {
  1675                           ;Trayectoria.c: 396: if (PORTBbits.RB6==1)
  1676  0946  1F06               	btfss	6,6	;volatile
  1677  0947  298A               	goto	l2934
  1678                           
  1679                           ;Trayectoria.c: 397: {
  1680                           ;Trayectoria.c: 398: _delay((unsigned long)((20)*(20000000/4000.0)));
  1681  0948  3082               	movlw	130
  1682  0949  1283               	bcf	3,5	;RP0=0, select bank0
  1683  094A  1303               	bcf	3,6	;RP1=0, select bank0
  1684  094B  00BF               	movwf	??_Posicioninicial+1
  1685  094C  30DD               	movlw	221
  1686  094D  00BE               	movwf	??_Posicioninicial
  1687  094E                     u4337:	
  1688  094E  0BBE               	decfsz	??_Posicioninicial,f
  1689  094F  294E               	goto	u4337
  1690  0950  0BBF               	decfsz	??_Posicioninicial+1,f
  1691  0951  294E               	goto	u4337
  1692                           
  1693                           ;Trayectoria.c: 399: if(PORTBbits.RB6==1)
  1694  0952  1283               	bcf	3,5	;RP0=0, select bank0
  1695  0953  1303               	bcf	3,6	;RP1=0, select bank0
  1696  0954  1F06               	btfss	6,6	;volatile
  1697  0955  298A               	goto	l2934
  1698  0956                     l277:	
  1699                           ;Trayectoria.c: 400: {
  1700                           ;Trayectoria.c: 401: while(PORTBbits.RB6==1);
  1701                           
  1702  0956  1B06               	btfsc	6,6	;volatile
  1703  0957  2956               	goto	l277
  1704                           
  1705                           ;Trayectoria.c: 402: _delay((unsigned long)((20)*(20000000/4000.0)));
  1706  0958  3082               	movlw	130
  1707  0959  1283               	bcf	3,5	;RP0=0, select bank0
  1708  095A  1303               	bcf	3,6	;RP1=0, select bank0
  1709  095B  00BF               	movwf	??_Posicioninicial+1
  1710  095C  30DD               	movlw	221
  1711  095D  00BE               	movwf	??_Posicioninicial
  1712  095E                     u4347:	
  1713  095E  0BBE               	decfsz	??_Posicioninicial,f
  1714  095F  295E               	goto	u4347
  1715  0960  0BBF               	decfsz	??_Posicioninicial+1,f
  1716  0961  295E               	goto	u4347
  1717                           
  1718                           ;Trayectoria.c: 403: if(PORTBbits.RB6==0)
  1719  0962  1283               	bcf	3,5	;RP0=0, select bank0
  1720  0963  1303               	bcf	3,6	;RP1=0, select bank0
  1721  0964  1B06               	btfsc	6,6	;volatile
  1722  0965  298A               	goto	l2934
  1723                           
  1724                           ;Trayectoria.c: 404: {
  1725                           ;Trayectoria.c: 405: if(ledbarra1!=0x40)
  1726  0966  3040               	movlw	64
  1727  0967  065D               	xorwf	_ledbarra1,w
  1728  0968  1903               	btfsc	3,2
  1729  0969  298A               	goto	l2934
  1730                           
  1731                           ;Trayectoria.c: 406: {
  1732                           ;Trayectoria.c: 407: ledbarra1=ledbarra1*2;
  1733  096A  085D               	movf	_ledbarra1,w
  1734  096B  00BE               	movwf	??_Posicioninicial
  1735  096C  073E               	addwf	??_Posicioninicial,w
  1736  096D  00BF               	movwf	??_Posicioninicial+1
  1737  096E  083F               	movf	??_Posicioninicial+1,w
  1738  096F  00DD               	movwf	_ledbarra1
  1739                           
  1740                           ;Trayectoria.c: 408: barras(ledbarra1,ledbarra2);
  1741  0970  087D               	movf	_ledbarra2,w
  1742  0971  00BE               	movwf	??_Posicioninicial
  1743  0972  083E               	movf	??_Posicioninicial,w
  1744  0973  00B5               	movwf	barras@posicionbarra2
  1745  0974  085D               	movf	_ledbarra1,w
  1746  0975  160A  118A  229A  120A  158A  	fcall	_barras
  1747                           
  1748                           ;Trayectoria.c: 409: ledball=ledbarra1;
  1749  097A  1283               	bcf	3,5	;RP0=0, select bank0
  1750  097B  1303               	bcf	3,6	;RP1=0, select bank0
  1751  097C  085D               	movf	_ledbarra1,w
  1752  097D  00BE               	movwf	??_Posicioninicial
  1753  097E  083E               	movf	??_Posicioninicial,w
  1754  097F  00DF               	movwf	_ledball
  1755                           
  1756                           ;Trayectoria.c: 410: enviardato(filaball,ledball);
  1757  0980  085F               	movf	_ledball,w
  1758  0981  00BE               	movwf	??_Posicioninicial
  1759  0982  083E               	movf	??_Posicioninicial,w
  1760  0983  00AC               	movwf	enviardato@dato
  1761  0984  085E               	movf	_filaball,w
  1762  0985  160A  118A  2146  120A  158A  	fcall	_enviardato
  1763  098A                     l2934:	
  1764                           
  1765                           ;Trayectoria.c: 412: }
  1766                           ;Trayectoria.c: 414: }
  1767                           ;Trayectoria.c: 415: }
  1768                           ;Trayectoria.c: 416: }
  1769                           ;Trayectoria.c: 417: if (PORTBbits.RB7==1)
  1770  098A  1283               	bcf	3,5	;RP0=0, select bank0
  1771  098B  1303               	bcf	3,6	;RP1=0, select bank0
  1772  098C  1F86               	btfss	6,7	;volatile
  1773  098D  29E0               	goto	l2954
  1774                           
  1775                           ;Trayectoria.c: 418: {
  1776                           ;Trayectoria.c: 419: _delay((unsigned long)((20)*(20000000/4000.0)));
  1777  098E  3082               	movlw	130
  1778  098F  1283               	bcf	3,5	;RP0=0, select bank0
  1779  0990  1303               	bcf	3,6	;RP1=0, select bank0
  1780  0991  00BF               	movwf	??_Posicioninicial+1
  1781  0992  30DD               	movlw	221
  1782  0993  00BE               	movwf	??_Posicioninicial
  1783  0994                     u4357:	
  1784  0994  0BBE               	decfsz	??_Posicioninicial,f
  1785  0995  2994               	goto	u4357
  1786  0996  0BBF               	decfsz	??_Posicioninicial+1,f
  1787  0997  2994               	goto	u4357
  1788                           
  1789                           ;Trayectoria.c: 420: if(PORTBbits.RB7==1)
  1790  0998  1283               	bcf	3,5	;RP0=0, select bank0
  1791  0999  1303               	bcf	3,6	;RP1=0, select bank0
  1792  099A  1F86               	btfss	6,7	;volatile
  1793  099B  29E0               	goto	l2954
  1794  099C                     l284:	
  1795                           ;Trayectoria.c: 421: {
  1796                           ;Trayectoria.c: 422: while(PORTBbits.RB7==1);
  1797                           
  1798  099C  1B86               	btfsc	6,7	;volatile
  1799  099D  299C               	goto	l284
  1800                           
  1801                           ;Trayectoria.c: 423: _delay((unsigned long)((20)*(20000000/4000.0)));
  1802  099E  3082               	movlw	130
  1803  099F  1283               	bcf	3,5	;RP0=0, select bank0
  1804  09A0  1303               	bcf	3,6	;RP1=0, select bank0
  1805  09A1  00BF               	movwf	??_Posicioninicial+1
  1806  09A2  30DD               	movlw	221
  1807  09A3  00BE               	movwf	??_Posicioninicial
  1808  09A4                     u4367:	
  1809  09A4  0BBE               	decfsz	??_Posicioninicial,f
  1810  09A5  29A4               	goto	u4367
  1811  09A6  0BBF               	decfsz	??_Posicioninicial+1,f
  1812  09A7  29A4               	goto	u4367
  1813                           
  1814                           ;Trayectoria.c: 424: if(PORTBbits.RB7==0)
  1815  09A8  1283               	bcf	3,5	;RP0=0, select bank0
  1816  09A9  1303               	bcf	3,6	;RP1=0, select bank0
  1817  09AA  1B86               	btfsc	6,7	;volatile
  1818  09AB  29E0               	goto	l2954
  1819                           
  1820                           ;Trayectoria.c: 425: {
  1821                           ;Trayectoria.c: 426: if(ledbarra1!=0x02)
  1822  09AC  3002               	movlw	2
  1823  09AD  065D               	xorwf	_ledbarra1,w
  1824  09AE  1903               	btfsc	3,2
  1825  09AF  29E0               	goto	l2954
  1826                           
  1827                           ;Trayectoria.c: 427: {
  1828                           ;Trayectoria.c: 428: ledbarra1=ledbarra1/2;
  1829  09B0  3002               	movlw	2
  1830  09B1  00AC               	movwf	___awdiv@divisor
  1831  09B2  3000               	movlw	0
  1832  09B3  00AD               	movwf	___awdiv@divisor+1
  1833  09B4  085D               	movf	_ledbarra1,w
  1834  09B5  00BE               	movwf	??_Posicioninicial
  1835  09B6  01BF               	clrf	??_Posicioninicial+1
  1836  09B7  083E               	movf	??_Posicioninicial,w
  1837  09B8  00AE               	movwf	___awdiv@dividend
  1838  09B9  083F               	movf	??_Posicioninicial+1,w
  1839  09BA  00AF               	movwf	___awdiv@dividend+1
  1840  09BB  160A  118A  21E1  120A  158A  	fcall	___awdiv
  1841  09C0  1283               	bcf	3,5	;RP0=0, select bank0
  1842  09C1  1303               	bcf	3,6	;RP1=0, select bank0
  1843  09C2  082C               	movf	?___awdiv,w
  1844  09C3  00C0               	movwf	??_Posicioninicial+2
  1845  09C4  0840               	movf	??_Posicioninicial+2,w
  1846  09C5  00DD               	movwf	_ledbarra1
  1847                           
  1848                           ;Trayectoria.c: 429: barras(ledbarra1,ledbarra2);
  1849  09C6  087D               	movf	_ledbarra2,w
  1850  09C7  00BE               	movwf	??_Posicioninicial
  1851  09C8  083E               	movf	??_Posicioninicial,w
  1852  09C9  00B5               	movwf	barras@posicionbarra2
  1853  09CA  085D               	movf	_ledbarra1,w
  1854  09CB  160A  118A  229A  120A  158A  	fcall	_barras
  1855                           
  1856                           ;Trayectoria.c: 430: ledball=ledbarra1;
  1857  09D0  1283               	bcf	3,5	;RP0=0, select bank0
  1858  09D1  1303               	bcf	3,6	;RP1=0, select bank0
  1859  09D2  085D               	movf	_ledbarra1,w
  1860  09D3  00BE               	movwf	??_Posicioninicial
  1861  09D4  083E               	movf	??_Posicioninicial,w
  1862  09D5  00DF               	movwf	_ledball
  1863                           
  1864                           ;Trayectoria.c: 431: enviardato(filaball,ledball);
  1865  09D6  085F               	movf	_ledball,w
  1866  09D7  00BE               	movwf	??_Posicioninicial
  1867  09D8  083E               	movf	??_Posicioninicial,w
  1868  09D9  00AC               	movwf	enviardato@dato
  1869  09DA  085E               	movf	_filaball,w
  1870  09DB  160A  118A  2146  120A  158A  	fcall	_enviardato
  1871  09E0                     l2954:	
  1872                           
  1873                           ;Trayectoria.c: 432: }
  1874                           ;Trayectoria.c: 434: }
  1875                           ;Trayectoria.c: 435: }
  1876                           ;Trayectoria.c: 436: }
  1877                           ;Trayectoria.c: 437: }
  1878                           ;Trayectoria.c: 438: if(gol2==1)
  1879  09E0  1283               	bcf	3,5	;RP0=0, select bank0
  1880  09E1  1303               	bcf	3,6	;RP1=0, select bank0
  1881  09E2  0357               	decf	_gol2,w
  1882  09E3  1D03               	btfss	3,2
  1883  09E4  0008               	return
  1884                           
  1885                           ;Trayectoria.c: 439: {
  1886                           ;Trayectoria.c: 441: if (PORTBbits.RB0==1)
  1887  09E5  1C06               	btfss	6,0	;volatile
  1888  09E6  2A29               	goto	l2978
  1889                           
  1890                           ;Trayectoria.c: 442: {
  1891                           ;Trayectoria.c: 443: _delay((unsigned long)((20)*(20000000/4000.0)));
  1892  09E7  3082               	movlw	130
  1893  09E8  1283               	bcf	3,5	;RP0=0, select bank0
  1894  09E9  1303               	bcf	3,6	;RP1=0, select bank0
  1895  09EA  00BF               	movwf	??_Posicioninicial+1
  1896  09EB  30DD               	movlw	221
  1897  09EC  00BE               	movwf	??_Posicioninicial
  1898  09ED                     u4377:	
  1899  09ED  0BBE               	decfsz	??_Posicioninicial,f
  1900  09EE  29ED               	goto	u4377
  1901  09EF  0BBF               	decfsz	??_Posicioninicial+1,f
  1902  09F0  29ED               	goto	u4377
  1903                           
  1904                           ;Trayectoria.c: 444: if(PORTBbits.RB0==1)
  1905  09F1  1283               	bcf	3,5	;RP0=0, select bank0
  1906  09F2  1303               	bcf	3,6	;RP1=0, select bank0
  1907  09F3  1C06               	btfss	6,0	;volatile
  1908  09F4  2A29               	goto	l2978
  1909  09F5                     l292:	
  1910                           ;Trayectoria.c: 445: {
  1911                           ;Trayectoria.c: 446: while(PORTBbits.RB0==1);
  1912                           
  1913  09F5  1806               	btfsc	6,0	;volatile
  1914  09F6  29F5               	goto	l292
  1915                           
  1916                           ;Trayectoria.c: 447: _delay((unsigned long)((20)*(20000000/4000.0)));
  1917  09F7  3082               	movlw	130
  1918  09F8  1283               	bcf	3,5	;RP0=0, select bank0
  1919  09F9  1303               	bcf	3,6	;RP1=0, select bank0
  1920  09FA  00BF               	movwf	??_Posicioninicial+1
  1921  09FB  30DD               	movlw	221
  1922  09FC  00BE               	movwf	??_Posicioninicial
  1923  09FD                     u4387:	
  1924  09FD  0BBE               	decfsz	??_Posicioninicial,f
  1925  09FE  29FD               	goto	u4387
  1926  09FF  0BBF               	decfsz	??_Posicioninicial+1,f
  1927  0A00  29FD               	goto	u4387
  1928                           
  1929                           ;Trayectoria.c: 448: if(PORTBbits.RB0==0)
  1930  0A01  1283               	bcf	3,5	;RP0=0, select bank0
  1931  0A02  1303               	bcf	3,6	;RP1=0, select bank0
  1932  0A03  1806               	btfsc	6,0	;volatile
  1933  0A04  2A29               	goto	l2978
  1934                           
  1935                           ;Trayectoria.c: 449: {
  1936                           ;Trayectoria.c: 450: if(ledbarra2!=0x40)
  1937  0A05  3040               	movlw	64
  1938  0A06  067D               	xorwf	_ledbarra2,w
  1939  0A07  1903               	btfsc	3,2
  1940  0A08  2A29               	goto	l2978
  1941                           
  1942                           ;Trayectoria.c: 451: {
  1943                           ;Trayectoria.c: 452: ledbarra2=ledbarra2*2;
  1944  0A09  087D               	movf	_ledbarra2,w
  1945  0A0A  00BE               	movwf	??_Posicioninicial
  1946  0A0B  073E               	addwf	??_Posicioninicial,w
  1947  0A0C  00BF               	movwf	??_Posicioninicial+1
  1948  0A0D  083F               	movf	??_Posicioninicial+1,w
  1949  0A0E  00FD               	movwf	_ledbarra2
  1950                           
  1951                           ;Trayectoria.c: 453: barras(ledbarra1,ledbarra2);
  1952  0A0F  087D               	movf	_ledbarra2,w
  1953  0A10  00BE               	movwf	??_Posicioninicial
  1954  0A11  083E               	movf	??_Posicioninicial,w
  1955  0A12  00B5               	movwf	barras@posicionbarra2
  1956  0A13  085D               	movf	_ledbarra1,w
  1957  0A14  160A  118A  229A  120A  158A  	fcall	_barras
  1958                           
  1959                           ;Trayectoria.c: 454: ledball=ledbarra2;
  1960  0A19  087D               	movf	_ledbarra2,w
  1961  0A1A  1283               	bcf	3,5	;RP0=0, select bank0
  1962  0A1B  1303               	bcf	3,6	;RP1=0, select bank0
  1963  0A1C  00BE               	movwf	??_Posicioninicial
  1964  0A1D  083E               	movf	??_Posicioninicial,w
  1965  0A1E  00DF               	movwf	_ledball
  1966                           
  1967                           ;Trayectoria.c: 455: enviardato2(0x07,ledbarra2);
  1968  0A1F  087D               	movf	_ledbarra2,w
  1969  0A20  00BE               	movwf	??_Posicioninicial
  1970  0A21  083E               	movf	??_Posicioninicial,w
  1971  0A22  00AC               	movwf	enviardato2@dato
  1972  0A23  3007               	movlw	7
  1973  0A24  160A  118A  2167  120A  158A  	fcall	_enviardato2
  1974  0A29                     l2978:	
  1975                           
  1976                           ;Trayectoria.c: 456: }
  1977                           ;Trayectoria.c: 458: }
  1978                           ;Trayectoria.c: 459: }
  1979                           ;Trayectoria.c: 460: }
  1980                           ;Trayectoria.c: 461: if (PORTBbits.RB1==1)
  1981  0A29  1283               	bcf	3,5	;RP0=0, select bank0
  1982  0A2A  1303               	bcf	3,6	;RP1=0, select bank0
  1983  0A2B  1C86               	btfss	6,1	;volatile
  1984  0A2C  0008               	return
  1985                           
  1986                           ;Trayectoria.c: 462: {
  1987                           ;Trayectoria.c: 463: _delay((unsigned long)((20)*(20000000/4000.0)));
  1988  0A2D  3082               	movlw	130
  1989  0A2E  1283               	bcf	3,5	;RP0=0, select bank0
  1990  0A2F  1303               	bcf	3,6	;RP1=0, select bank0
  1991  0A30  00BF               	movwf	??_Posicioninicial+1
  1992  0A31  30DD               	movlw	221
  1993  0A32  00BE               	movwf	??_Posicioninicial
  1994  0A33                     u4397:	
  1995  0A33  0BBE               	decfsz	??_Posicioninicial,f
  1996  0A34  2A33               	goto	u4397
  1997  0A35  0BBF               	decfsz	??_Posicioninicial+1,f
  1998  0A36  2A33               	goto	u4397
  1999                           
  2000                           ;Trayectoria.c: 464: if(PORTBbits.RB1==1)
  2001  0A37  1283               	bcf	3,5	;RP0=0, select bank0
  2002  0A38  1303               	bcf	3,6	;RP1=0, select bank0
  2003  0A39  1C86               	btfss	6,1	;volatile
  2004  0A3A  0008               	return
  2005  0A3B                     l299:	
  2006                           ;Trayectoria.c: 465: {
  2007                           ;Trayectoria.c: 466: while(PORTBbits.RB1==1);
  2008                           
  2009  0A3B  1886               	btfsc	6,1	;volatile
  2010  0A3C  2A3B               	goto	l299
  2011                           
  2012                           ;Trayectoria.c: 467: _delay((unsigned long)((20)*(20000000/4000.0)));
  2013  0A3D  3082               	movlw	130
  2014  0A3E  1283               	bcf	3,5	;RP0=0, select bank0
  2015  0A3F  1303               	bcf	3,6	;RP1=0, select bank0
  2016  0A40  00BF               	movwf	??_Posicioninicial+1
  2017  0A41  30DD               	movlw	221
  2018  0A42  00BE               	movwf	??_Posicioninicial
  2019  0A43                     u4407:	
  2020  0A43  0BBE               	decfsz	??_Posicioninicial,f
  2021  0A44  2A43               	goto	u4407
  2022  0A45  0BBF               	decfsz	??_Posicioninicial+1,f
  2023  0A46  2A43               	goto	u4407
  2024                           
  2025                           ;Trayectoria.c: 468: if(PORTBbits.RB1==0)
  2026  0A47  1283               	bcf	3,5	;RP0=0, select bank0
  2027  0A48  1303               	bcf	3,6	;RP1=0, select bank0
  2028  0A49  1886               	btfsc	6,1	;volatile
  2029  0A4A  0008               	return
  2030                           
  2031                           ;Trayectoria.c: 469: {
  2032                           ;Trayectoria.c: 470: if(ledbarra2!=0x02)
  2033  0A4B  3002               	movlw	2
  2034  0A4C  067D               	xorwf	_ledbarra2,w
  2035  0A4D  1903               	btfsc	3,2
  2036  0A4E  0008               	return
  2037                           
  2038                           ;Trayectoria.c: 471: {
  2039                           ;Trayectoria.c: 472: ledbarra2=ledbarra2/2;
  2040  0A4F  3002               	movlw	2
  2041  0A50  00AC               	movwf	___awdiv@divisor
  2042  0A51  3000               	movlw	0
  2043  0A52  00AD               	movwf	___awdiv@divisor+1
  2044  0A53  087D               	movf	_ledbarra2,w
  2045  0A54  00BE               	movwf	??_Posicioninicial
  2046  0A55  01BF               	clrf	??_Posicioninicial+1
  2047  0A56  083E               	movf	??_Posicioninicial,w
  2048  0A57  00AE               	movwf	___awdiv@dividend
  2049  0A58  083F               	movf	??_Posicioninicial+1,w
  2050  0A59  00AF               	movwf	___awdiv@dividend+1
  2051  0A5A  160A  118A  21E1  120A  158A  	fcall	___awdiv
  2052  0A5F  1283               	bcf	3,5	;RP0=0, select bank0
  2053  0A60  1303               	bcf	3,6	;RP1=0, select bank0
  2054  0A61  082C               	movf	?___awdiv,w
  2055  0A62  00C0               	movwf	??_Posicioninicial+2
  2056  0A63  0840               	movf	??_Posicioninicial+2,w
  2057  0A64  00FD               	movwf	_ledbarra2
  2058                           
  2059                           ;Trayectoria.c: 473: barras(ledbarra1,ledbarra2);
  2060  0A65  087D               	movf	_ledbarra2,w
  2061  0A66  00BE               	movwf	??_Posicioninicial
  2062  0A67  083E               	movf	??_Posicioninicial,w
  2063  0A68  00B5               	movwf	barras@posicionbarra2
  2064  0A69  085D               	movf	_ledbarra1,w
  2065  0A6A  160A  118A  229A  120A  158A  	fcall	_barras
  2066                           
  2067                           ;Trayectoria.c: 474: ledball=ledbarra2;
  2068  0A6F  087D               	movf	_ledbarra2,w
  2069  0A70  1283               	bcf	3,5	;RP0=0, select bank0
  2070  0A71  1303               	bcf	3,6	;RP1=0, select bank0
  2071  0A72  00BE               	movwf	??_Posicioninicial
  2072  0A73  083E               	movf	??_Posicioninicial,w
  2073  0A74  00DF               	movwf	_ledball
  2074                           
  2075                           ;Trayectoria.c: 475: enviardato2(0x07,ledbarra2);
  2076  0A75  087D               	movf	_ledbarra2,w
  2077  0A76  00BE               	movwf	??_Posicioninicial
  2078  0A77  083E               	movf	??_Posicioninicial,w
  2079  0A78  00AC               	movwf	enviardato2@dato
  2080  0A79  3007               	movlw	7
  2081  0A7A  160A  118A  2167   	fcall	_enviardato2
  2082  0A7D  0008               	return
  2083  0A7E                     __end_of_Posicioninicial:	
  2084                           
  2085                           	psect	text3
  2086  003B                     __ptext3:	
  2087 ;; *************** function _Juego *****************
  2088 ;; Defined at:
  2089 ;;		line 485 in file "Trayectoria.c"
  2090 ;; Parameters:    Size  Location     Type
  2091 ;;		None
  2092 ;; Auto vars:     Size  Location     Type
  2093 ;;		None
  2094 ;; Return value:  Size  Location     Type
  2095 ;;                  1    wreg      void 
  2096 ;; Registers used:
  2097 ;;		wreg, fsr0l, fsr0h, status,2, status,0, pclath, cstack
  2098 ;; Tracked objects:
  2099 ;;		On entry : 0/0
  2100 ;;		On exit  : 0/0
  2101 ;;		Unchanged: 0/0
  2102 ;; Data sizes:     COMMON   BANK0   BANK1   BANK3   BANK2
  2103 ;;      Params:         0       0       0       0       0
  2104 ;;      Locals:         0       0       0       0       0
  2105 ;;      Temps:          0       0       4       0       0
  2106 ;;      Totals:         0       0       4       0       0
  2107 ;;Total ram usage:        4 bytes
  2108 ;; Hardware stack levels used:    1
  2109 ;; Hardware stack levels required when called:    6
  2110 ;; This function calls:
  2111 ;;		_Gol
  2112 ;;		_Marcador
  2113 ;;		_Saque
  2114 ;;		___awdiv
  2115 ;;		___ftmul
  2116 ;;		___fttol
  2117 ;;		___lbtoft
  2118 ;;		_barras
  2119 ;;		_enviardato
  2120 ;;		_enviardato2
  2121 ;; This function is called by:
  2122 ;;		_main
  2123 ;; This function uses a non-reentrant model
  2124 ;;
  2125                           
  2126                           
  2127                           ;psect for function _Juego
  2128  003B                     _Juego:	
  2129  003B                     l3510:	
  2130                           ;Trayectoria.c: 488: while(Trayectoria==1 && banderagol==0)
  2131                           
  2132                           ;incstack = 0
  2133                           ; Regs used in _Juego: [wreg-fsr0h+status,2+status,0+pclath+cstack]
  2134                           
  2135  003B  1283               	bcf	3,5	;RP0=0, select bank0
  2136  003C  1303               	bcf	3,6	;RP1=0, select bank0
  2137  003D  035C               	decf	_Trayectoria,w
  2138  003E  1D03               	btfss	3,2
  2139  003F  2BB4               	goto	l3574
  2140  0040  0854               	movf	_banderagol,w
  2141  0041  1D03               	btfss	3,2
  2142  0042  2BB4               	goto	l3574
  2143                           
  2144                           ;Trayectoria.c: 489: {
  2145                           ;Trayectoria.c: 492: if(filaball<0x08)
  2146  0043  3008               	movlw	8
  2147  0044  1283               	bcf	3,5	;RP0=0, select bank0
  2148  0045  1303               	bcf	3,6	;RP1=0, select bank0
  2149  0046  025E               	subwf	_filaball,w
  2150  0047  1803               	skipnc
  2151  0048  289E               	goto	l3462
  2152                           
  2153                           ;Trayectoria.c: 493: {
  2154                           ;Trayectoria.c: 494: if(ledball!=0x80)
  2155  0049  3080               	movlw	128
  2156  004A  065F               	xorwf	_ledball,w
  2157  004B  1903               	btfsc	3,2
  2158  004C  2887               	goto	l3458
  2159                           
  2160                           ;Trayectoria.c: 495: {
  2161                           ;Trayectoria.c: 496: barras(ledbarra1,ledbarra2);
  2162  004D  087D               	movf	_ledbarra2,w
  2163  004E  1683               	bsf	3,5	;RP0=1, select bank1
  2164  004F  1303               	bcf	3,6	;RP1=0, select bank1
  2165  0050  00E2               	movwf	??_Juego^(0+128)
  2166  0051  0862               	movf	??_Juego^(0+128),w
  2167  0052  1283               	bcf	3,5	;RP0=0, select bank0
  2168  0053  1303               	bcf	3,6	;RP1=0, select bank0
  2169  0054  00B5               	movwf	barras@posicionbarra2
  2170  0055  085D               	movf	_ledbarra1,w
  2171  0056  160A  118A  229A  120A  118A  	fcall	_barras
  2172                           
  2173                           ;Trayectoria.c: 497: enviardato(filaball,0);
  2174  005B  1283               	bcf	3,5	;RP0=0, select bank0
  2175  005C  1303               	bcf	3,6	;RP1=0, select bank0
  2176  005D  01AC               	clrf	enviardato@dato
  2177  005E  085E               	movf	_filaball,w
  2178  005F  160A  118A  2146  120A  118A  	fcall	_enviardato
  2179                           
  2180                           ;Trayectoria.c: 498: ledball=ledball*2;
  2181  0064  1283               	bcf	3,5	;RP0=0, select bank0
  2182  0065  1303               	bcf	3,6	;RP1=0, select bank0
  2183  0066  085F               	movf	_ledball,w
  2184  0067  1683               	bsf	3,5	;RP0=1, select bank1
  2185  0068  1303               	bcf	3,6	;RP1=0, select bank1
  2186  0069  00E2               	movwf	??_Juego^(0+128)
  2187  006A  0762               	addwf	??_Juego^(0+128),w
  2188  006B  00E3               	movwf	(??_Juego+1)^(0+128)
  2189  006C  0863               	movf	(??_Juego+1)^(0+128),w
  2190  006D  1283               	bcf	3,5	;RP0=0, select bank0
  2191  006E  1303               	bcf	3,6	;RP1=0, select bank0
  2192  006F  00DF               	movwf	_ledball
  2193                           
  2194                           ;Trayectoria.c: 499: filaball++;
  2195  0070  3001               	movlw	1
  2196  0071  1683               	bsf	3,5	;RP0=1, select bank1
  2197  0072  1303               	bcf	3,6	;RP1=0, select bank1
  2198  0073  00E2               	movwf	??_Juego^(0+128)
  2199  0074  0862               	movf	??_Juego^(0+128),w
  2200  0075  1283               	bcf	3,5	;RP0=0, select bank0
  2201  0076  1303               	bcf	3,6	;RP1=0, select bank0
  2202  0077  07DE               	addwf	_filaball,f
  2203                           
  2204                           ;Trayectoria.c: 500: enviardato(filaball,ledball);
  2205  0078  085F               	movf	_ledball,w
  2206  0079  1683               	bsf	3,5	;RP0=1, select bank1
  2207  007A  1303               	bcf	3,6	;RP1=0, select bank1
  2208  007B  00E2               	movwf	??_Juego^(0+128)
  2209  007C  0862               	movf	??_Juego^(0+128),w
  2210  007D  1283               	bcf	3,5	;RP0=0, select bank0
  2211  007E  1303               	bcf	3,6	;RP1=0, select bank0
  2212  007F  00AC               	movwf	enviardato@dato
  2213  0080  085E               	movf	_filaball,w
  2214  0081  160A  118A  2146  120A  118A  	fcall	_enviardato
  2215  0086  2932               	goto	L16
  2216  0087                     l3458:	
  2217                           ;Trayectoria.c: 502: }
  2218                           
  2219                           ;Trayectoria.c: 501: _delay((unsigned long)((tiempo)*(20000000/4000.0)));
  2220                           
  2221                           
  2222                           ;Trayectoria.c: 503: else
  2223                           ;Trayectoria.c: 504: {
  2224                           ;Trayectoria.c: 505: Trayectoria=4;
  2225  0087  3004               	movlw	4
  2226  0088  1683               	bsf	3,5	;RP0=1, select bank1
  2227  0089  1303               	bcf	3,6	;RP1=0, select bank1
  2228  008A  00E2               	movwf	??_Juego^(0+128)
  2229  008B  0862               	movf	??_Juego^(0+128),w
  2230  008C  1283               	bcf	3,5	;RP0=0, select bank0
  2231  008D  1303               	bcf	3,6	;RP1=0, select bank0
  2232  008E  00DC               	movwf	_Trayectoria
  2233                           
  2234                           ;Trayectoria.c: 506: barras(ledbarra1,ledbarra2);
  2235  008F  087D               	movf	_ledbarra2,w
  2236  0090  1683               	bsf	3,5	;RP0=1, select bank1
  2237  0091  1303               	bcf	3,6	;RP1=0, select bank1
  2238  0092  00E2               	movwf	??_Juego^(0+128)
  2239  0093  0862               	movf	??_Juego^(0+128),w
  2240  0094  1283               	bcf	3,5	;RP0=0, select bank0
  2241  0095  1303               	bcf	3,6	;RP1=0, select bank0
  2242  0096  00B5               	movwf	barras@posicionbarra2
  2243  0097  085D               	movf	_ledbarra1,w
  2244  0098  160A  118A  229A  120A  118A  	fcall	_barras
  2245                           
  2246                           ;Trayectoria.c: 507: }
  2247                           ;Trayectoria.c: 508: }
  2248  009D  283B               	goto	l3510
  2249  009E                     l3462:	
  2250                           
  2251                           ;Trayectoria.c: 509: else if (filaball==0x08){
  2252  009E  3008               	movlw	8
  2253  009F  1283               	bcf	3,5	;RP0=0, select bank0
  2254  00A0  1303               	bcf	3,6	;RP1=0, select bank0
  2255  00A1  065E               	xorwf	_filaball,w
  2256  00A2  1D03               	btfss	3,2
  2257  00A3  28E4               	goto	l3476
  2258                           
  2259                           ;Trayectoria.c: 510: if(ledball!=0x80)
  2260  00A4  3080               	movlw	128
  2261  00A5  065F               	xorwf	_ledball,w
  2262  00A6  1903               	btfsc	3,2
  2263  00A7  28CD               	goto	l3472
  2264                           
  2265                           ;Trayectoria.c: 511: {
  2266                           ;Trayectoria.c: 512: enviardato(filaball,0);
  2267  00A8  01AC               	clrf	enviardato@dato
  2268  00A9  085E               	movf	_filaball,w
  2269  00AA  160A  118A  2146  120A  118A  	fcall	_enviardato
  2270                           
  2271                           ;Trayectoria.c: 513: ledball=ledball*2;
  2272  00AF  1283               	bcf	3,5	;RP0=0, select bank0
  2273  00B0  1303               	bcf	3,6	;RP1=0, select bank0
  2274  00B1  085F               	movf	_ledball,w
  2275  00B2  1683               	bsf	3,5	;RP0=1, select bank1
  2276  00B3  1303               	bcf	3,6	;RP1=0, select bank1
  2277  00B4  00E2               	movwf	??_Juego^(0+128)
  2278  00B5  0762               	addwf	??_Juego^(0+128),w
  2279  00B6  00E3               	movwf	(??_Juego+1)^(0+128)
  2280  00B7  0863               	movf	(??_Juego+1)^(0+128),w
  2281  00B8  1283               	bcf	3,5	;RP0=0, select bank0
  2282  00B9  1303               	bcf	3,6	;RP1=0, select bank0
  2283  00BA  00DF               	movwf	_ledball
  2284                           
  2285                           ;Trayectoria.c: 514: filaball++;
  2286  00BB  3001               	movlw	1
  2287  00BC  1683               	bsf	3,5	;RP0=1, select bank1
  2288  00BD  1303               	bcf	3,6	;RP1=0, select bank1
  2289  00BE  00E2               	movwf	??_Juego^(0+128)
  2290  00BF  0862               	movf	??_Juego^(0+128),w
  2291  00C0  1283               	bcf	3,5	;RP0=0, select bank0
  2292  00C1  1303               	bcf	3,6	;RP1=0, select bank0
  2293  00C2  07DE               	addwf	_filaball,f
  2294                           
  2295                           ;Trayectoria.c: 515: enviardato2(0x01,ledball);
  2296  00C3  085F               	movf	_ledball,w
  2297  00C4  1683               	bsf	3,5	;RP0=1, select bank1
  2298  00C5  1303               	bcf	3,6	;RP1=0, select bank1
  2299  00C6  00E2               	movwf	??_Juego^(0+128)
  2300  00C7  0862               	movf	??_Juego^(0+128),w
  2301  00C8  1283               	bcf	3,5	;RP0=0, select bank0
  2302  00C9  1303               	bcf	3,6	;RP1=0, select bank0
  2303  00CA  00AC               	movwf	enviardato2@dato
  2304  00CB  3001               	movlw	1
  2305  00CC  292D               	goto	L9
  2306  00CD                     l3472:	
  2307                           ;Trayectoria.c: 517: }
  2308                           
  2309                           ;Trayectoria.c: 516: _delay((unsigned long)((tiempo)*(20000000/4000.0)));
  2310                           
  2311                           
  2312                           ;Trayectoria.c: 518: else
  2313                           ;Trayectoria.c: 519: {
  2314                           ;Trayectoria.c: 520: Trayectoria=4;
  2315  00CD  3004               	movlw	4
  2316  00CE  1683               	bsf	3,5	;RP0=1, select bank1
  2317  00CF  1303               	bcf	3,6	;RP1=0, select bank1
  2318  00D0  00E2               	movwf	??_Juego^(0+128)
  2319  00D1  0862               	movf	??_Juego^(0+128),w
  2320  00D2  1283               	bcf	3,5	;RP0=0, select bank0
  2321  00D3  1303               	bcf	3,6	;RP1=0, select bank0
  2322  00D4  00DC               	movwf	_Trayectoria
  2323                           
  2324                           ;Trayectoria.c: 521: barras(ledbarra1,ledbarra2);
  2325  00D5  087D               	movf	_ledbarra2,w
  2326  00D6  1683               	bsf	3,5	;RP0=1, select bank1
  2327  00D7  1303               	bcf	3,6	;RP1=0, select bank1
  2328  00D8  00E2               	movwf	??_Juego^(0+128)
  2329  00D9  0862               	movf	??_Juego^(0+128),w
  2330  00DA  1283               	bcf	3,5	;RP0=0, select bank0
  2331  00DB  1303               	bcf	3,6	;RP1=0, select bank0
  2332  00DC  00B5               	movwf	barras@posicionbarra2
  2333  00DD  085D               	movf	_ledbarra1,w
  2334  00DE  160A  118A  229A  120A  118A  	fcall	_barras
  2335                           
  2336                           ;Trayectoria.c: 522: }
  2337                           ;Trayectoria.c: 523: }
  2338  00E3  283B               	goto	l3510
  2339  00E4                     l3476:	
  2340                           
  2341                           ;Trayectoria.c: 524: else
  2342                           ;Trayectoria.c: 525: {
  2343                           ;Trayectoria.c: 526: if(filaball!=0x10)
  2344  00E4  3010               	movlw	16
  2345  00E5  1283               	bcf	3,5	;RP0=0, select bank0
  2346  00E6  1303               	bcf	3,6	;RP1=0, select bank0
  2347  00E7  065E               	xorwf	_filaball,w
  2348  00E8  1903               	btfsc	3,2
  2349  00E9  298A               	goto	l3490
  2350                           
  2351                           ;Trayectoria.c: 527: {
  2352                           ;Trayectoria.c: 528: if(ledball!=0x80)
  2353  00EA  3080               	movlw	128
  2354  00EB  065F               	xorwf	_ledball,w
  2355  00EC  1903               	btfsc	3,2
  2356  00ED  2973               	goto	l3486
  2357                           
  2358                           ;Trayectoria.c: 529: {
  2359                           ;Trayectoria.c: 530: barras(ledbarra1,ledbarra2);
  2360  00EE  087D               	movf	_ledbarra2,w
  2361  00EF  1683               	bsf	3,5	;RP0=1, select bank1
  2362  00F0  1303               	bcf	3,6	;RP1=0, select bank1
  2363  00F1  00E2               	movwf	??_Juego^(0+128)
  2364  00F2  0862               	movf	??_Juego^(0+128),w
  2365  00F3  1283               	bcf	3,5	;RP0=0, select bank0
  2366  00F4  1303               	bcf	3,6	;RP1=0, select bank0
  2367  00F5  00B5               	movwf	barras@posicionbarra2
  2368  00F6  085D               	movf	_ledbarra1,w
  2369  00F7  160A  118A  229A  120A  118A  	fcall	_barras
  2370                           
  2371                           ;Trayectoria.c: 531: enviardato(0x08,0);
  2372  00FC  1283               	bcf	3,5	;RP0=0, select bank0
  2373  00FD  1303               	bcf	3,6	;RP1=0, select bank0
  2374  00FE  01AC               	clrf	enviardato@dato
  2375  00FF  3008               	movlw	8
  2376  0100  160A  118A  2146  120A  118A  	fcall	_enviardato
  2377                           
  2378                           ;Trayectoria.c: 532: enviardato2((filaball-0x08),0);
  2379  0105  1283               	bcf	3,5	;RP0=0, select bank0
  2380  0106  1303               	bcf	3,6	;RP1=0, select bank0
  2381  0107  01AC               	clrf	enviardato2@dato
  2382  0108  085E               	movf	_filaball,w
  2383  0109  3EF8               	addlw	248
  2384  010A  160A  118A  2167  120A  118A  	fcall	_enviardato2
  2385                           
  2386                           ;Trayectoria.c: 533: ledball=ledball*2;
  2387  010F  1283               	bcf	3,5	;RP0=0, select bank0
  2388  0110  1303               	bcf	3,6	;RP1=0, select bank0
  2389  0111  085F               	movf	_ledball,w
  2390  0112  1683               	bsf	3,5	;RP0=1, select bank1
  2391  0113  1303               	bcf	3,6	;RP1=0, select bank1
  2392  0114  00E2               	movwf	??_Juego^(0+128)
  2393  0115  0762               	addwf	??_Juego^(0+128),w
  2394  0116  00E3               	movwf	(??_Juego+1)^(0+128)
  2395  0117  0863               	movf	(??_Juego+1)^(0+128),w
  2396  0118  1283               	bcf	3,5	;RP0=0, select bank0
  2397  0119  1303               	bcf	3,6	;RP1=0, select bank0
  2398  011A  00DF               	movwf	_ledball
  2399                           
  2400                           ;Trayectoria.c: 534: filaball++;
  2401  011B  3001               	movlw	1
  2402  011C  1683               	bsf	3,5	;RP0=1, select bank1
  2403  011D  1303               	bcf	3,6	;RP1=0, select bank1
  2404  011E  00E2               	movwf	??_Juego^(0+128)
  2405  011F  0862               	movf	??_Juego^(0+128),w
  2406  0120  1283               	bcf	3,5	;RP0=0, select bank0
  2407  0121  1303               	bcf	3,6	;RP1=0, select bank0
  2408  0122  07DE               	addwf	_filaball,f
  2409                           
  2410                           ;Trayectoria.c: 535: enviardato2((filaball-0x08),ledball);
  2411  0123  085F               	movf	_ledball,w
  2412  0124  1683               	bsf	3,5	;RP0=1, select bank1
  2413  0125  1303               	bcf	3,6	;RP1=0, select bank1
  2414  0126  00E2               	movwf	??_Juego^(0+128)
  2415  0127  0862               	movf	??_Juego^(0+128),w
  2416  0128  1283               	bcf	3,5	;RP0=0, select bank0
  2417  0129  1303               	bcf	3,6	;RP1=0, select bank0
  2418  012A  00AC               	movwf	enviardato2@dato
  2419  012B  085E               	movf	_filaball,w
  2420  012C  3EF8               	addlw	248
  2421  012D                     L9:	
  2422  012D  160A  118A  2167  120A  118A  	fcall	_enviardato2
  2423  0132                     L16:	
  2424                           
  2425                           ;Trayectoria.c: 536: _delay((unsigned long)((tiempo)*(20000000/4000.0)));
  2426  0132  1283               	bcf	3,5	;RP0=0, select bank0
  2427  0133  1303               	bcf	3,6	;RP1=0, select bank0
  2428  0134  085B               	movf	_tiempo,w
  2429  0135  160A  118A  2128  120A  118A  	fcall	___lbtoft
  2430  013A  1283               	bcf	3,5	;RP0=0, select bank0
  2431  013B  1303               	bcf	3,6	;RP1=0, select bank0
  2432  013C  0834               	movf	?___lbtoft,w
  2433  013D  00BF               	movwf	___ftmul@f2
  2434  013E  0835               	movf	?___lbtoft+1,w
  2435  013F  00C0               	movwf	___ftmul@f2+1
  2436  0140  0836               	movf	?___lbtoft+2,w
  2437  0141  00C1               	movwf	___ftmul@f2+2
  2438  0142  3040               	movlw	64
  2439  0143  00BC               	movwf	___ftmul@f1
  2440  0144  309C               	movlw	156
  2441  0145  00BD               	movwf	___ftmul@f1+1
  2442  0146  3045               	movlw	69
  2443  0147  00BE               	movwf	___ftmul@f1+2
  2444  0148  160A  118A  254F  120A  118A  	fcall	___ftmul
  2445  014D  1283               	bcf	3,5	;RP0=0, select bank0
  2446  014E  1303               	bcf	3,6	;RP1=0, select bank0
  2447  014F  083C               	movf	?___ftmul,w
  2448  0150  00CC               	movwf	___fttol@f1
  2449  0151  083D               	movf	?___ftmul+1,w
  2450  0152  00CD               	movwf	___fttol@f1+1
  2451  0153  083E               	movf	?___ftmul+2,w
  2452  0154  00CE               	movwf	___fttol@f1+2
  2453  0155  160A  118A  2486  120A  118A  	fcall	___fttol
  2454  015A  1283               	bcf	3,5	;RP0=0, select bank0
  2455  015B  1303               	bcf	3,6	;RP1=0, select bank0
  2456  015C  084C               	movf	?___fttol,w
  2457  015D  1683               	bsf	3,5	;RP0=1, select bank1
  2458  015E  1303               	bcf	3,6	;RP1=0, select bank1
  2459  015F  00E2               	movwf	??_Juego^(0+128)
  2460  0160  1283               	bcf	3,5	;RP0=0, select bank0
  2461  0161  1303               	bcf	3,6	;RP1=0, select bank0
  2462  0162  084D               	movf	?___fttol+1,w
  2463  0163  1683               	bsf	3,5	;RP0=1, select bank1
  2464  0164  1303               	bcf	3,6	;RP1=0, select bank1
  2465  0165  00E3               	movwf	(??_Juego^(0+128)+1)
  2466  0166  1283               	bcf	3,5	;RP0=0, select bank0
  2467  0167  1303               	bcf	3,6	;RP1=0, select bank0
  2468  0168  084E               	movf	?___fttol+2,w
  2469  0169  1683               	bsf	3,5	;RP0=1, select bank1
  2470  016A  1303               	bcf	3,6	;RP1=0, select bank1
  2471  016B  00E4               	movwf	(??_Juego^(0+128)+2)
  2472  016C  1283               	bcf	3,5	;RP0=0, select bank0
  2473  016D  1303               	bcf	3,6	;RP1=0, select bank0
  2474  016E  084F               	movf	?___fttol+3,w
  2475  016F  1683               	bsf	3,5	;RP0=1, select bank1
  2476  0170  1303               	bcf	3,6	;RP1=0, select bank1
  2477  0171  00E5               	movwf	(??_Juego^(0+128)+3)
  2478                           
  2479                           ;Trayectoria.c: 537: }
  2480  0172  283B               	goto	l3510
  2481  0173                     l3486:	
  2482                           
  2483                           ;Trayectoria.c: 538: else
  2484                           ;Trayectoria.c: 539: {
  2485                           ;Trayectoria.c: 540: Trayectoria=4;
  2486  0173  3004               	movlw	4
  2487  0174  1683               	bsf	3,5	;RP0=1, select bank1
  2488  0175  1303               	bcf	3,6	;RP1=0, select bank1
  2489  0176  00E2               	movwf	??_Juego^(0+128)
  2490  0177  0862               	movf	??_Juego^(0+128),w
  2491  0178  1283               	bcf	3,5	;RP0=0, select bank0
  2492  0179  1303               	bcf	3,6	;RP1=0, select bank0
  2493  017A  00DC               	movwf	_Trayectoria
  2494                           
  2495                           ;Trayectoria.c: 541: barras(ledbarra1,ledbarra2);
  2496  017B  087D               	movf	_ledbarra2,w
  2497  017C  1683               	bsf	3,5	;RP0=1, select bank1
  2498  017D  1303               	bcf	3,6	;RP1=0, select bank1
  2499  017E  00E2               	movwf	??_Juego^(0+128)
  2500  017F  0862               	movf	??_Juego^(0+128),w
  2501  0180  1283               	bcf	3,5	;RP0=0, select bank0
  2502  0181  1303               	bcf	3,6	;RP1=0, select bank0
  2503  0182  00B5               	movwf	barras@posicionbarra2
  2504  0183  085D               	movf	_ledbarra1,w
  2505  0184  160A  118A  229A  120A  118A  	fcall	_barras
  2506                           
  2507                           ;Trayectoria.c: 542: }
  2508                           ;Trayectoria.c: 543: }
  2509  0189  283B               	goto	l3510
  2510  018A                     l3490:	
  2511                           
  2512                           ;Trayectoria.c: 544: else
  2513                           ;Trayectoria.c: 545: {
  2514                           ;Trayectoria.c: 546: if(ledball==ledbarra2 || ledball==ledbarra2*2)
  2515  018A  1283               	bcf	3,5	;RP0=0, select bank0
  2516  018B  1303               	bcf	3,6	;RP1=0, select bank0
  2517  018C  085F               	movf	_ledball,w
  2518  018D  067D               	xorwf	_ledbarra2,w
  2519  018E  1903               	skipnz
  2520  018F  29A7               	goto	l3494
  2521  0190  087D               	movf	_ledbarra2,w
  2522  0191  1683               	bsf	3,5	;RP0=1, select bank1
  2523  0192  1303               	bcf	3,6	;RP1=0, select bank1
  2524  0193  00E2               	movwf	??_Juego^(0+128)
  2525  0194  01E3               	clrf	(??_Juego^(0+128)+1)
  2526  0195  1003               	clrc
  2527  0196  0DE2               	rlf	??_Juego^(0+128),f
  2528  0197  0DE3               	rlf	(??_Juego^(0+128)+1),f
  2529  0198  1283               	bcf	3,5	;RP0=0, select bank0
  2530  0199  1303               	bcf	3,6	;RP1=0, select bank0
  2531  019A  085F               	movf	_ledball,w
  2532  019B  1683               	bsf	3,5	;RP0=1, select bank1
  2533  019C  1303               	bcf	3,6	;RP1=0, select bank1
  2534  019D  00E4               	movwf	(??_Juego+2)^(0+128)
  2535  019E  01E5               	clrf	((??_Juego+2)^(0+128)+1)
  2536  019F  0863               	movf	(??_Juego+1)^(0+128),w
  2537  01A0  0665               	xorwf	(??_Juego+3)^(0+128),w
  2538  01A1  1D03               	skipz
  2539  01A2  29A5               	goto	u3705
  2540  01A3  0862               	movf	??_Juego^(0+128),w
  2541  01A4  0664               	xorwf	(??_Juego+2)^(0+128),w
  2542  01A5                     u3705:	
  2543  01A5  1D03               	skipz
  2544  01A6  29BE               	goto	l3498
  2545  01A7                     l3494:	
  2546                           
  2547                           ;Trayectoria.c: 547: {
  2548                           ;Trayectoria.c: 548: Trayectoria=2;
  2549  01A7  3002               	movlw	2
  2550  01A8  1683               	bsf	3,5	;RP0=1, select bank1
  2551  01A9  1303               	bcf	3,6	;RP1=0, select bank1
  2552  01AA  00E2               	movwf	??_Juego^(0+128)
  2553  01AB  0862               	movf	??_Juego^(0+128),w
  2554  01AC  1283               	bcf	3,5	;RP0=0, select bank0
  2555  01AD  1303               	bcf	3,6	;RP1=0, select bank0
  2556  01AE  00DC               	movwf	_Trayectoria
  2557                           
  2558                           ;Trayectoria.c: 549: barras(ledbarra1,ledbarra2);
  2559  01AF  087D               	movf	_ledbarra2,w
  2560  01B0  1683               	bsf	3,5	;RP0=1, select bank1
  2561  01B1  1303               	bcf	3,6	;RP1=0, select bank1
  2562  01B2  00E2               	movwf	??_Juego^(0+128)
  2563  01B3  0862               	movf	??_Juego^(0+128),w
  2564  01B4  1283               	bcf	3,5	;RP0=0, select bank0
  2565  01B5  1303               	bcf	3,6	;RP1=0, select bank0
  2566  01B6  00B5               	movwf	barras@posicionbarra2
  2567  01B7  085D               	movf	_ledbarra1,w
  2568  01B8  160A  118A  229A  120A  118A  	fcall	_barras
  2569                           
  2570                           ;Trayectoria.c: 550: }
  2571  01BD  283B               	goto	l3510
  2572  01BE                     l3498:	
  2573                           
  2574                           ;Trayectoria.c: 551: else if (ledball==ledbarra2/2)
  2575  01BE  3002               	movlw	2
  2576  01BF  1283               	bcf	3,5	;RP0=0, select bank0
  2577  01C0  1303               	bcf	3,6	;RP1=0, select bank0
  2578  01C1  00AC               	movwf	___awdiv@divisor
  2579  01C2  3000               	movlw	0
  2580  01C3  00AD               	movwf	___awdiv@divisor+1
  2581  01C4  087D               	movf	_ledbarra2,w
  2582  01C5  1683               	bsf	3,5	;RP0=1, select bank1
  2583  01C6  1303               	bcf	3,6	;RP1=0, select bank1
  2584  01C7  00E2               	movwf	??_Juego^(0+128)
  2585  01C8  01E3               	clrf	(??_Juego^(0+128)+1)
  2586  01C9  0862               	movf	??_Juego^(0+128),w
  2587  01CA  1283               	bcf	3,5	;RP0=0, select bank0
  2588  01CB  1303               	bcf	3,6	;RP1=0, select bank0
  2589  01CC  00AE               	movwf	___awdiv@dividend
  2590  01CD  1683               	bsf	3,5	;RP0=1, select bank1
  2591  01CE  1303               	bcf	3,6	;RP1=0, select bank1
  2592  01CF  0863               	movf	(??_Juego+1)^(0+128),w
  2593  01D0  1283               	bcf	3,5	;RP0=0, select bank0
  2594  01D1  1303               	bcf	3,6	;RP1=0, select bank0
  2595  01D2  00AF               	movwf	___awdiv@dividend+1
  2596  01D3  160A  118A  21E1  120A  118A  	fcall	___awdiv
  2597  01D8  1283               	bcf	3,5	;RP0=0, select bank0
  2598  01D9  1303               	bcf	3,6	;RP1=0, select bank0
  2599  01DA  085F               	movf	_ledball,w
  2600  01DB  1683               	bsf	3,5	;RP0=1, select bank1
  2601  01DC  1303               	bcf	3,6	;RP1=0, select bank1
  2602  01DD  00E4               	movwf	(??_Juego+2)^(0+128)
  2603  01DE  01E5               	clrf	((??_Juego+2)^(0+128)+1)
  2604  01DF  1283               	bcf	3,5	;RP0=0, select bank0
  2605  01E0  1303               	bcf	3,6	;RP1=0, select bank0
  2606  01E1  082D               	movf	?___awdiv+1,w
  2607  01E2  1683               	bsf	3,5	;RP0=1, select bank1
  2608  01E3  1303               	bcf	3,6	;RP1=0, select bank1
  2609  01E4  0665               	xorwf	(??_Juego+3)^(0+128),w
  2610  01E5  1D03               	skipz
  2611  01E6  29ED               	goto	u3715
  2612  01E7  1283               	bcf	3,5	;RP0=0, select bank0
  2613  01E8  1303               	bcf	3,6	;RP1=0, select bank0
  2614  01E9  082C               	movf	?___awdiv,w
  2615  01EA  1683               	bsf	3,5	;RP0=1, select bank1
  2616  01EB  1303               	bcf	3,6	;RP1=0, select bank1
  2617  01EC  0664               	xorwf	(??_Juego+2)^(0+128),w
  2618  01ED                     u3715:	
  2619  01ED  1D03               	skipz
  2620  01EE  2A04               	goto	l325
  2621                           
  2622                           ;Trayectoria.c: 552: {
  2623                           ;Trayectoria.c: 553: Trayectoria=3;
  2624  01EF  3003               	movlw	3
  2625  01F0  00E2               	movwf	??_Juego^(0+128)
  2626  01F1  0862               	movf	??_Juego^(0+128),w
  2627  01F2  1283               	bcf	3,5	;RP0=0, select bank0
  2628  01F3  1303               	bcf	3,6	;RP1=0, select bank0
  2629  01F4  00DC               	movwf	_Trayectoria
  2630                           
  2631                           ;Trayectoria.c: 554: barras(ledbarra1,ledbarra2);
  2632  01F5  087D               	movf	_ledbarra2,w
  2633  01F6  1683               	bsf	3,5	;RP0=1, select bank1
  2634  01F7  1303               	bcf	3,6	;RP1=0, select bank1
  2635  01F8  00E2               	movwf	??_Juego^(0+128)
  2636  01F9  0862               	movf	??_Juego^(0+128),w
  2637  01FA  1283               	bcf	3,5	;RP0=0, select bank0
  2638  01FB  1303               	bcf	3,6	;RP1=0, select bank0
  2639  01FC  00B5               	movwf	barras@posicionbarra2
  2640  01FD  085D               	movf	_ledbarra1,w
  2641  01FE  160A  118A  229A  120A  118A  	fcall	_barras
  2642                           
  2643                           ;Trayectoria.c: 555: }
  2644  0203  283B               	goto	l3510
  2645  0204                     l325:	
  2646                           
  2647                           ;Trayectoria.c: 556: else
  2648                           ;Trayectoria.c: 557: {
  2649                           ;Trayectoria.c: 558: gol2=1;
  2650  0204  1283               	bcf	3,5	;RP0=0, select bank0
  2651  0205  1303               	bcf	3,6	;RP1=0, select bank0
  2652  0206  01D7               	clrf	_gol2
  2653  0207  0AD7               	incf	_gol2,f
  2654                           
  2655                           ;Trayectoria.c: 559: banderagol=1;
  2656  0208  01D4               	clrf	_banderagol
  2657  0209  0AD4               	incf	_banderagol,f
  2658                           
  2659                           ;Trayectoria.c: 560: puntaje1++;
  2660  020A  3001               	movlw	1
  2661  020B  1683               	bsf	3,5	;RP0=1, select bank1
  2662  020C  1303               	bcf	3,6	;RP1=0, select bank1
  2663  020D  00E2               	movwf	??_Juego^(0+128)
  2664  020E  0862               	movf	??_Juego^(0+128),w
  2665  020F  1283               	bcf	3,5	;RP0=0, select bank0
  2666  0210  1303               	bcf	3,6	;RP1=0, select bank0
  2667  0211  07D6               	addwf	_puntaje1,f
  2668                           
  2669                           ;Trayectoria.c: 561: Gol();
  2670  0212  160A  118A  270D  120A  118A  	fcall	_Gol
  2671                           
  2672                           ;Trayectoria.c: 562: Marcador();
  2673  0217  120A  158A  23BF  120A  118A  	fcall	_Marcador
  2674  021C  283B               	goto	l3510
  2675  021D                     l3514:	
  2676                           ;Trayectoria.c: 563: }
  2677                           ;Trayectoria.c: 564: }
  2678                           ;Trayectoria.c: 566: }
  2679                           ;Trayectoria.c: 568: }
  2680                           ;Trayectoria.c: 569: while(Trayectoria==2&& banderagol==0)
  2681                           
  2682                           
  2683                           ;Trayectoria.c: 570: {
  2684                           ;Trayectoria.c: 573: if(filaball<=0x08)
  2685  021D  3009               	movlw	9
  2686  021E  025E               	subwf	_filaball,w
  2687  021F  1803               	skipnc
  2688  0220  2AD2               	goto	l3548
  2689                           
  2690                           ;Trayectoria.c: 574: {
  2691                           ;Trayectoria.c: 575: if(filaball!=0x01)
  2692  0221  035E               	decf	_filaball,w
  2693  0222  1903               	btfsc	3,2
  2694  0223  2A65               	goto	l3530
  2695                           
  2696                           ;Trayectoria.c: 576: {
  2697                           ;Trayectoria.c: 577: if(ledball!=0x80)
  2698  0224  3080               	movlw	128
  2699  0225  065F               	xorwf	_ledball,w
  2700  0226  1903               	btfsc	3,2
  2701  0227  2B9E               	goto	l3570
  2702                           
  2703                           ;Trayectoria.c: 578: {
  2704                           ;Trayectoria.c: 579: barras(ledbarra1,ledbarra2);
  2705  0228  087D               	movf	_ledbarra2,w
  2706  0229  1683               	bsf	3,5	;RP0=1, select bank1
  2707  022A  1303               	bcf	3,6	;RP1=0, select bank1
  2708  022B  00E2               	movwf	??_Juego^(0+128)
  2709  022C  0862               	movf	??_Juego^(0+128),w
  2710  022D  1283               	bcf	3,5	;RP0=0, select bank0
  2711  022E  1303               	bcf	3,6	;RP1=0, select bank0
  2712  022F  00B5               	movwf	barras@posicionbarra2
  2713  0230  085D               	movf	_ledbarra1,w
  2714  0231  160A  118A  229A  120A  118A  	fcall	_barras
  2715                           
  2716                           ;Trayectoria.c: 580: enviardato2(0x01,0);
  2717  0236  1283               	bcf	3,5	;RP0=0, select bank0
  2718  0237  1303               	bcf	3,6	;RP1=0, select bank0
  2719  0238  01AC               	clrf	enviardato2@dato
  2720  0239  3001               	movlw	1
  2721  023A  160A  118A  2167  120A  118A  	fcall	_enviardato2
  2722                           
  2723                           ;Trayectoria.c: 581: enviardato(filaball,0);
  2724  023F  1283               	bcf	3,5	;RP0=0, select bank0
  2725  0240  1303               	bcf	3,6	;RP1=0, select bank0
  2726  0241  01AC               	clrf	enviardato@dato
  2727  0242  085E               	movf	_filaball,w
  2728  0243  160A  118A  2146  120A  118A  	fcall	_enviardato
  2729                           
  2730                           ;Trayectoria.c: 582: ledball=ledball*2;
  2731  0248  1283               	bcf	3,5	;RP0=0, select bank0
  2732  0249  1303               	bcf	3,6	;RP1=0, select bank0
  2733  024A  085F               	movf	_ledball,w
  2734  024B  1683               	bsf	3,5	;RP0=1, select bank1
  2735  024C  1303               	bcf	3,6	;RP1=0, select bank1
  2736  024D  00E2               	movwf	??_Juego^(0+128)
  2737  024E  0762               	addwf	??_Juego^(0+128),w
  2738  024F  00E3               	movwf	(??_Juego+1)^(0+128)
  2739  0250  0863               	movf	(??_Juego+1)^(0+128),w
  2740  0251  1283               	bcf	3,5	;RP0=0, select bank0
  2741  0252  1303               	bcf	3,6	;RP1=0, select bank0
  2742  0253  00DF               	movwf	_ledball
  2743                           
  2744                           ;Trayectoria.c: 583: filaball--;
  2745  0254  3001               	movlw	1
  2746  0255  02DE               	subwf	_filaball,f
  2747                           
  2748                           ;Trayectoria.c: 584: enviardato(filaball,ledball);
  2749  0256  085F               	movf	_ledball,w
  2750  0257  1683               	bsf	3,5	;RP0=1, select bank1
  2751  0258  1303               	bcf	3,6	;RP1=0, select bank1
  2752  0259  00E2               	movwf	??_Juego^(0+128)
  2753  025A  0862               	movf	??_Juego^(0+128),w
  2754  025B  1283               	bcf	3,5	;RP0=0, select bank0
  2755  025C  1303               	bcf	3,6	;RP1=0, select bank0
  2756  025D  00AC               	movwf	enviardato@dato
  2757  025E  085E               	movf	_filaball,w
  2758  025F  160A  118A  2146  120A  118A  	fcall	_enviardato
  2759  0264  2B5D               	goto	L11
  2760  0265                     l3530:	
  2761                           ;Trayectoria.c: 591: }
  2762                           ;Trayectoria.c: 592: }
  2763                           
  2764                           ;Trayectoria.c: 590: barras(ledbarra1,ledbarra2);
  2765                           
  2766                           ;Trayectoria.c: 587: else
  2767                           ;Trayectoria.c: 588: {
  2768                           ;Trayectoria.c: 589: Trayectoria=3;
  2769                           
  2770                           ;Trayectoria.c: 586: }
  2771                           
  2772                           ;Trayectoria.c: 585: _delay((unsigned long)((tiempo)*(20000000/4000.0)));
  2773                           
  2774                           
  2775                           ;Trayectoria.c: 593: else
  2776                           ;Trayectoria.c: 594: {
  2777                           ;Trayectoria.c: 595: if(ledball==ledbarra1 || ledball==ledbarra1*2)
  2778  0265  1283               	bcf	3,5	;RP0=0, select bank0
  2779  0266  1303               	bcf	3,6	;RP1=0, select bank0
  2780  0267  085F               	movf	_ledball,w
  2781  0268  065D               	xorwf	_ledbarra1,w
  2782  0269  1903               	skipnz
  2783  026A  2A82               	goto	l339
  2784  026B  085D               	movf	_ledbarra1,w
  2785  026C  1683               	bsf	3,5	;RP0=1, select bank1
  2786  026D  1303               	bcf	3,6	;RP1=0, select bank1
  2787  026E  00E2               	movwf	??_Juego^(0+128)
  2788  026F  01E3               	clrf	(??_Juego^(0+128)+1)
  2789  0270  1003               	clrc
  2790  0271  0DE2               	rlf	??_Juego^(0+128),f
  2791  0272  0DE3               	rlf	(??_Juego^(0+128)+1),f
  2792  0273  1283               	bcf	3,5	;RP0=0, select bank0
  2793  0274  1303               	bcf	3,6	;RP1=0, select bank0
  2794  0275  085F               	movf	_ledball,w
  2795  0276  1683               	bsf	3,5	;RP0=1, select bank1
  2796  0277  1303               	bcf	3,6	;RP1=0, select bank1
  2797  0278  00E4               	movwf	(??_Juego+2)^(0+128)
  2798  0279  01E5               	clrf	((??_Juego+2)^(0+128)+1)
  2799  027A  0863               	movf	(??_Juego+1)^(0+128),w
  2800  027B  0665               	xorwf	(??_Juego+3)^(0+128),w
  2801  027C  1D03               	skipz
  2802  027D  2A80               	goto	u3785
  2803  027E  0862               	movf	??_Juego^(0+128),w
  2804  027F  0664               	xorwf	(??_Juego+2)^(0+128),w
  2805  0280                     u3785:	
  2806  0280  1D03               	skipz
  2807  0281  2A86               	goto	l3536
  2808  0282                     l339:	
  2809                           
  2810                           ;Trayectoria.c: 596: {
  2811                           ;Trayectoria.c: 597: Trayectoria=1;
  2812  0282  1283               	bcf	3,5	;RP0=0, select bank0
  2813  0283  01DC               	clrf	_Trayectoria
  2814  0284  0ADC               	incf	_Trayectoria,f
  2815  0285  2BA6               	goto	L10
  2816  0286                     l3536:	
  2817                           ;Trayectoria.c: 599: }
  2818                           
  2819                           ;Trayectoria.c: 598: barras(ledbarra1,ledbarra2);
  2820                           
  2821                           
  2822                           ;Trayectoria.c: 600: else if (ledball==ledbarra1/2)
  2823  0286  3002               	movlw	2
  2824  0287  1283               	bcf	3,5	;RP0=0, select bank0
  2825  0288  1303               	bcf	3,6	;RP1=0, select bank0
  2826  0289  00AC               	movwf	___awdiv@divisor
  2827  028A  3000               	movlw	0
  2828  028B  00AD               	movwf	___awdiv@divisor+1
  2829  028C  085D               	movf	_ledbarra1,w
  2830  028D  1683               	bsf	3,5	;RP0=1, select bank1
  2831  028E  1303               	bcf	3,6	;RP1=0, select bank1
  2832  028F  00E2               	movwf	??_Juego^(0+128)
  2833  0290  01E3               	clrf	(??_Juego^(0+128)+1)
  2834  0291  0862               	movf	??_Juego^(0+128),w
  2835  0292  1283               	bcf	3,5	;RP0=0, select bank0
  2836  0293  1303               	bcf	3,6	;RP1=0, select bank0
  2837  0294  00AE               	movwf	___awdiv@dividend
  2838  0295  1683               	bsf	3,5	;RP0=1, select bank1
  2839  0296  1303               	bcf	3,6	;RP1=0, select bank1
  2840  0297  0863               	movf	(??_Juego+1)^(0+128),w
  2841  0298  1283               	bcf	3,5	;RP0=0, select bank0
  2842  0299  1303               	bcf	3,6	;RP1=0, select bank0
  2843  029A  00AF               	movwf	___awdiv@dividend+1
  2844  029B  160A  118A  21E1  120A  118A  	fcall	___awdiv
  2845  02A0  1283               	bcf	3,5	;RP0=0, select bank0
  2846  02A1  1303               	bcf	3,6	;RP1=0, select bank0
  2847  02A2  085F               	movf	_ledball,w
  2848  02A3  1683               	bsf	3,5	;RP0=1, select bank1
  2849  02A4  1303               	bcf	3,6	;RP1=0, select bank1
  2850  02A5  00E4               	movwf	(??_Juego+2)^(0+128)
  2851  02A6  01E5               	clrf	((??_Juego+2)^(0+128)+1)
  2852  02A7  1283               	bcf	3,5	;RP0=0, select bank0
  2853  02A8  1303               	bcf	3,6	;RP1=0, select bank0
  2854  02A9  082D               	movf	?___awdiv+1,w
  2855  02AA  1683               	bsf	3,5	;RP0=1, select bank1
  2856  02AB  1303               	bcf	3,6	;RP1=0, select bank1
  2857  02AC  0665               	xorwf	(??_Juego+3)^(0+128),w
  2858  02AD  1D03               	skipz
  2859  02AE  2AB5               	goto	u3795
  2860  02AF  1283               	bcf	3,5	;RP0=0, select bank0
  2861  02B0  1303               	bcf	3,6	;RP1=0, select bank0
  2862  02B1  082C               	movf	?___awdiv,w
  2863  02B2  1683               	bsf	3,5	;RP0=1, select bank1
  2864  02B3  1303               	bcf	3,6	;RP1=0, select bank1
  2865  02B4  0664               	xorwf	(??_Juego+2)^(0+128),w
  2866  02B5                     u3795:	
  2867  02B5  1D03               	skipz
  2868  02B6  2AB9               	goto	l341
  2869                           
  2870                           ;Trayectoria.c: 601: {
  2871                           ;Trayectoria.c: 602: Trayectoria=4;
  2872  02B7  3004               	movlw	4
  2873  02B8  2BA1               	goto	L17
  2874  02B9                     l341:	
  2875                           ;Trayectoria.c: 604: }
  2876                           
  2877                           ;Trayectoria.c: 603: barras(ledbarra1,ledbarra2);
  2878                           
  2879                           
  2880                           ;Trayectoria.c: 605: else
  2881                           ;Trayectoria.c: 606: {
  2882                           ;Trayectoria.c: 607: gol1=1;
  2883  02B9  1283               	bcf	3,5	;RP0=0, select bank0
  2884  02BA  1303               	bcf	3,6	;RP1=0, select bank0
  2885  02BB  01E0               	clrf	_gol1
  2886  02BC  0AE0               	incf	_gol1,f
  2887                           
  2888                           ;Trayectoria.c: 608: banderagol=1;
  2889  02BD  01D4               	clrf	_banderagol
  2890  02BE  0AD4               	incf	_banderagol,f
  2891                           
  2892                           ;Trayectoria.c: 609: puntaje2++;
  2893  02BF  3001               	movlw	1
  2894  02C0  1683               	bsf	3,5	;RP0=1, select bank1
  2895  02C1  1303               	bcf	3,6	;RP1=0, select bank1
  2896  02C2  00E2               	movwf	??_Juego^(0+128)
  2897  02C3  0862               	movf	??_Juego^(0+128),w
  2898  02C4  1283               	bcf	3,5	;RP0=0, select bank0
  2899  02C5  1303               	bcf	3,6	;RP1=0, select bank0
  2900  02C6  07D5               	addwf	_puntaje2,f
  2901                           
  2902                           ;Trayectoria.c: 610: Gol();
  2903  02C7  160A  118A  270D  120A  118A  	fcall	_Gol
  2904                           
  2905                           ;Trayectoria.c: 611: Marcador();
  2906  02CC  120A  158A  23BF  120A  118A  	fcall	_Marcador
  2907                           
  2908                           ;Trayectoria.c: 612: }
  2909                           ;Trayectoria.c: 613: }
  2910                           ;Trayectoria.c: 615: }
  2911  02D1  2BB4               	goto	l3574
  2912  02D2                     l3548:	
  2913                           
  2914                           ;Trayectoria.c: 616: else if (filaball==0x09){
  2915  02D2  3009               	movlw	9
  2916  02D3  1283               	bcf	3,5	;RP0=0, select bank0
  2917  02D4  1303               	bcf	3,6	;RP1=0, select bank0
  2918  02D5  065E               	xorwf	_filaball,w
  2919  02D6  1D03               	btfss	3,2
  2920  02D7  2B19               	goto	l3562
  2921                           
  2922                           ;Trayectoria.c: 617: if(ledball!=0x80)
  2923  02D8  3080               	movlw	128
  2924  02D9  065F               	xorwf	_ledball,w
  2925  02DA  1903               	btfsc	3,2
  2926  02DB  2B9E               	goto	l3570
  2927                           
  2928                           ;Trayectoria.c: 618: {
  2929                           ;Trayectoria.c: 619: barras(ledbarra1,ledbarra2);
  2930  02DC  087D               	movf	_ledbarra2,w
  2931  02DD  1683               	bsf	3,5	;RP0=1, select bank1
  2932  02DE  1303               	bcf	3,6	;RP1=0, select bank1
  2933  02DF  00E2               	movwf	??_Juego^(0+128)
  2934  02E0  0862               	movf	??_Juego^(0+128),w
  2935  02E1  1283               	bcf	3,5	;RP0=0, select bank0
  2936  02E2  1303               	bcf	3,6	;RP1=0, select bank0
  2937  02E3  00B5               	movwf	barras@posicionbarra2
  2938  02E4  085D               	movf	_ledbarra1,w
  2939  02E5  160A  118A  229A  120A  118A  	fcall	_barras
  2940                           
  2941                           ;Trayectoria.c: 620: enviardato2(0x01,0);
  2942  02EA  1283               	bcf	3,5	;RP0=0, select bank0
  2943  02EB  1303               	bcf	3,6	;RP1=0, select bank0
  2944  02EC  01AC               	clrf	enviardato2@dato
  2945  02ED  3001               	movlw	1
  2946  02EE  160A  118A  2167  120A  118A  	fcall	_enviardato2
  2947                           
  2948                           ;Trayectoria.c: 621: enviardato(filaball,0);
  2949  02F3  1283               	bcf	3,5	;RP0=0, select bank0
  2950  02F4  1303               	bcf	3,6	;RP1=0, select bank0
  2951  02F5  01AC               	clrf	enviardato@dato
  2952  02F6  085E               	movf	_filaball,w
  2953  02F7  160A  118A  2146  120A  118A  	fcall	_enviardato
  2954                           
  2955                           ;Trayectoria.c: 622: ledball=ledball*2;
  2956  02FC  1283               	bcf	3,5	;RP0=0, select bank0
  2957  02FD  1303               	bcf	3,6	;RP1=0, select bank0
  2958  02FE  085F               	movf	_ledball,w
  2959  02FF  1683               	bsf	3,5	;RP0=1, select bank1
  2960  0300  1303               	bcf	3,6	;RP1=0, select bank1
  2961  0301  00E2               	movwf	??_Juego^(0+128)
  2962  0302  0762               	addwf	??_Juego^(0+128),w
  2963  0303  00E3               	movwf	(??_Juego+1)^(0+128)
  2964  0304  0863               	movf	(??_Juego+1)^(0+128),w
  2965  0305  1283               	bcf	3,5	;RP0=0, select bank0
  2966  0306  1303               	bcf	3,6	;RP1=0, select bank0
  2967  0307  00DF               	movwf	_ledball
  2968                           
  2969                           ;Trayectoria.c: 623: filaball--;
  2970  0308  3001               	movlw	1
  2971  0309  02DE               	subwf	_filaball,f
  2972                           
  2973                           ;Trayectoria.c: 624: enviardato(0x08,ledball);
  2974  030A  085F               	movf	_ledball,w
  2975  030B  1683               	bsf	3,5	;RP0=1, select bank1
  2976  030C  1303               	bcf	3,6	;RP1=0, select bank1
  2977  030D  00E2               	movwf	??_Juego^(0+128)
  2978  030E  0862               	movf	??_Juego^(0+128),w
  2979  030F  1283               	bcf	3,5	;RP0=0, select bank0
  2980  0310  1303               	bcf	3,6	;RP1=0, select bank0
  2981  0311  00AC               	movwf	enviardato@dato
  2982  0312  3008               	movlw	8
  2983  0313  160A  118A  2146  120A  118A  	fcall	_enviardato
  2984  0318  2B5D               	goto	L11
  2985  0319                     l3562:	
  2986                           ;Trayectoria.c: 631: }
  2987                           ;Trayectoria.c: 632: }
  2988                           
  2989                           ;Trayectoria.c: 630: barras(ledbarra1,ledbarra2);
  2990                           
  2991                           ;Trayectoria.c: 627: else
  2992                           ;Trayectoria.c: 628: {
  2993                           ;Trayectoria.c: 629: Trayectoria=3;
  2994                           
  2995                           ;Trayectoria.c: 626: }
  2996                           
  2997                           ;Trayectoria.c: 625: _delay((unsigned long)((tiempo)*(20000000/4000.0)));
  2998                           
  2999                           
  3000                           ;Trayectoria.c: 633: else
  3001                           ;Trayectoria.c: 634: {
  3002                           ;Trayectoria.c: 635: if(ledball!=0x80)
  3003  0319  3080               	movlw	128
  3004  031A  1283               	bcf	3,5	;RP0=0, select bank0
  3005  031B  1303               	bcf	3,6	;RP1=0, select bank0
  3006  031C  065F               	xorwf	_ledball,w
  3007  031D  1903               	btfsc	3,2
  3008  031E  2B9E               	goto	l3570
  3009                           
  3010                           ;Trayectoria.c: 636: {
  3011                           ;Trayectoria.c: 637: barras(ledbarra1,ledbarra2);
  3012  031F  087D               	movf	_ledbarra2,w
  3013  0320  1683               	bsf	3,5	;RP0=1, select bank1
  3014  0321  1303               	bcf	3,6	;RP1=0, select bank1
  3015  0322  00E2               	movwf	??_Juego^(0+128)
  3016  0323  0862               	movf	??_Juego^(0+128),w
  3017  0324  1283               	bcf	3,5	;RP0=0, select bank0
  3018  0325  1303               	bcf	3,6	;RP1=0, select bank0
  3019  0326  00B5               	movwf	barras@posicionbarra2
  3020  0327  085D               	movf	_ledbarra1,w
  3021  0328  160A  118A  229A  120A  118A  	fcall	_barras
  3022                           
  3023                           ;Trayectoria.c: 638: enviardato2(0x07,0);
  3024  032D  1283               	bcf	3,5	;RP0=0, select bank0
  3025  032E  1303               	bcf	3,6	;RP1=0, select bank0
  3026  032F  01AC               	clrf	enviardato2@dato
  3027  0330  3007               	movlw	7
  3028  0331  160A  118A  2167  120A  118A  	fcall	_enviardato2
  3029                           
  3030                           ;Trayectoria.c: 639: enviardato2(filaball-0x08,0);
  3031  0336  1283               	bcf	3,5	;RP0=0, select bank0
  3032  0337  1303               	bcf	3,6	;RP1=0, select bank0
  3033  0338  01AC               	clrf	enviardato2@dato
  3034  0339  085E               	movf	_filaball,w
  3035  033A  3EF8               	addlw	248
  3036  033B  160A  118A  2167  120A  118A  	fcall	_enviardato2
  3037                           
  3038                           ;Trayectoria.c: 640: ledball=ledball*2;
  3039  0340  1283               	bcf	3,5	;RP0=0, select bank0
  3040  0341  1303               	bcf	3,6	;RP1=0, select bank0
  3041  0342  085F               	movf	_ledball,w
  3042  0343  1683               	bsf	3,5	;RP0=1, select bank1
  3043  0344  1303               	bcf	3,6	;RP1=0, select bank1
  3044  0345  00E2               	movwf	??_Juego^(0+128)
  3045  0346  0762               	addwf	??_Juego^(0+128),w
  3046  0347  00E3               	movwf	(??_Juego+1)^(0+128)
  3047  0348  0863               	movf	(??_Juego+1)^(0+128),w
  3048  0349  1283               	bcf	3,5	;RP0=0, select bank0
  3049  034A  1303               	bcf	3,6	;RP1=0, select bank0
  3050  034B  00DF               	movwf	_ledball
  3051                           
  3052                           ;Trayectoria.c: 641: filaball--;
  3053  034C  3001               	movlw	1
  3054  034D  02DE               	subwf	_filaball,f
  3055                           
  3056                           ;Trayectoria.c: 642: enviardato2(filaball-0x08,ledball);
  3057  034E  085F               	movf	_ledball,w
  3058  034F  1683               	bsf	3,5	;RP0=1, select bank1
  3059  0350  1303               	bcf	3,6	;RP1=0, select bank1
  3060  0351  00E2               	movwf	??_Juego^(0+128)
  3061  0352  0862               	movf	??_Juego^(0+128),w
  3062  0353  1283               	bcf	3,5	;RP0=0, select bank0
  3063  0354  1303               	bcf	3,6	;RP1=0, select bank0
  3064  0355  00AC               	movwf	enviardato2@dato
  3065  0356  085E               	movf	_filaball,w
  3066  0357  3EF8               	addlw	248
  3067  0358  160A  118A  2167  120A  118A  	fcall	_enviardato2
  3068  035D                     L11:	
  3069                           
  3070                           ;Trayectoria.c: 643: _delay((unsigned long)((tiempo)*(20000000/4000.0)));
  3071  035D  1283               	bcf	3,5	;RP0=0, select bank0
  3072  035E  1303               	bcf	3,6	;RP1=0, select bank0
  3073  035F  085B               	movf	_tiempo,w
  3074  0360  160A  118A  2128  120A  118A  	fcall	___lbtoft
  3075  0365  1283               	bcf	3,5	;RP0=0, select bank0
  3076  0366  1303               	bcf	3,6	;RP1=0, select bank0
  3077  0367  0834               	movf	?___lbtoft,w
  3078  0368  00BF               	movwf	___ftmul@f2
  3079  0369  0835               	movf	?___lbtoft+1,w
  3080  036A  00C0               	movwf	___ftmul@f2+1
  3081  036B  0836               	movf	?___lbtoft+2,w
  3082  036C  00C1               	movwf	___ftmul@f2+2
  3083  036D  3040               	movlw	64
  3084  036E  00BC               	movwf	___ftmul@f1
  3085  036F  309C               	movlw	156
  3086  0370  00BD               	movwf	___ftmul@f1+1
  3087  0371  3045               	movlw	69
  3088  0372  00BE               	movwf	___ftmul@f1+2
  3089  0373  160A  118A  254F  120A  118A  	fcall	___ftmul
  3090  0378  1283               	bcf	3,5	;RP0=0, select bank0
  3091  0379  1303               	bcf	3,6	;RP1=0, select bank0
  3092  037A  083C               	movf	?___ftmul,w
  3093  037B  00CC               	movwf	___fttol@f1
  3094  037C  083D               	movf	?___ftmul+1,w
  3095  037D  00CD               	movwf	___fttol@f1+1
  3096  037E  083E               	movf	?___ftmul+2,w
  3097  037F  00CE               	movwf	___fttol@f1+2
  3098  0380  160A  118A  2486  120A  118A  	fcall	___fttol
  3099  0385  1283               	bcf	3,5	;RP0=0, select bank0
  3100  0386  1303               	bcf	3,6	;RP1=0, select bank0
  3101  0387  084C               	movf	?___fttol,w
  3102  0388  1683               	bsf	3,5	;RP0=1, select bank1
  3103  0389  1303               	bcf	3,6	;RP1=0, select bank1
  3104  038A  00E2               	movwf	??_Juego^(0+128)
  3105  038B  1283               	bcf	3,5	;RP0=0, select bank0
  3106  038C  1303               	bcf	3,6	;RP1=0, select bank0
  3107  038D  084D               	movf	?___fttol+1,w
  3108  038E  1683               	bsf	3,5	;RP0=1, select bank1
  3109  038F  1303               	bcf	3,6	;RP1=0, select bank1
  3110  0390  00E3               	movwf	(??_Juego^(0+128)+1)
  3111  0391  1283               	bcf	3,5	;RP0=0, select bank0
  3112  0392  1303               	bcf	3,6	;RP1=0, select bank0
  3113  0393  084E               	movf	?___fttol+2,w
  3114  0394  1683               	bsf	3,5	;RP0=1, select bank1
  3115  0395  1303               	bcf	3,6	;RP1=0, select bank1
  3116  0396  00E4               	movwf	(??_Juego^(0+128)+2)
  3117  0397  1283               	bcf	3,5	;RP0=0, select bank0
  3118  0398  1303               	bcf	3,6	;RP1=0, select bank0
  3119  0399  084F               	movf	?___fttol+3,w
  3120  039A  1683               	bsf	3,5	;RP0=1, select bank1
  3121  039B  1303               	bcf	3,6	;RP1=0, select bank1
  3122  039C  00E5               	movwf	(??_Juego^(0+128)+3)
  3123                           
  3124                           ;Trayectoria.c: 644: }
  3125  039D  2BB4               	goto	l3574
  3126  039E                     l3570:	
  3127                           
  3128                           ;Trayectoria.c: 645: else
  3129                           ;Trayectoria.c: 646: {
  3130                           ;Trayectoria.c: 647: Trayectoria=3;
  3131  039E  3003               	movlw	3
  3132  039F  1683               	bsf	3,5	;RP0=1, select bank1
  3133  03A0  1303               	bcf	3,6	;RP1=0, select bank1
  3134  03A1                     L17:	
  3135  03A1  00E2               	movwf	??_Juego^(0+128)
  3136  03A2  0862               	movf	??_Juego^(0+128),w
  3137  03A3  1283               	bcf	3,5	;RP0=0, select bank0
  3138  03A4  1303               	bcf	3,6	;RP1=0, select bank0
  3139  03A5  00DC               	movwf	_Trayectoria
  3140  03A6                     L10:	
  3141                           
  3142                           ;Trayectoria.c: 648: barras(ledbarra1,ledbarra2);
  3143  03A6  087D               	movf	_ledbarra2,w
  3144  03A7  1683               	bsf	3,5	;RP0=1, select bank1
  3145  03A8  1303               	bcf	3,6	;RP1=0, select bank1
  3146  03A9  00E2               	movwf	??_Juego^(0+128)
  3147  03AA  0862               	movf	??_Juego^(0+128),w
  3148  03AB  1283               	bcf	3,5	;RP0=0, select bank0
  3149  03AC  1303               	bcf	3,6	;RP1=0, select bank0
  3150  03AD  00B5               	movwf	barras@posicionbarra2
  3151  03AE  085D               	movf	_ledbarra1,w
  3152  03AF  160A  118A  229A  120A  118A  	fcall	_barras
  3153  03B4                     l3574:	
  3154  03B4  3002               	movlw	2
  3155  03B5  1283               	bcf	3,5	;RP0=0, select bank0
  3156  03B6  1303               	bcf	3,6	;RP1=0, select bank0
  3157  03B7  065C               	xorwf	_Trayectoria,w
  3158  03B8  1D03               	btfss	3,2
  3159  03B9  2D92               	goto	l3646
  3160  03BA  0854               	movf	_banderagol,w
  3161  03BB  1D03               	btfss	3,2
  3162  03BC  2D92               	goto	l3646
  3163  03BD  2A1D               	goto	l3514
  3164  03BE                     l3578:	
  3165                           ;Trayectoria.c: 649: }
  3166                           ;Trayectoria.c: 650: }
  3167                           ;Trayectoria.c: 651: }
  3168                           ;Trayectoria.c: 652: while(Trayectoria==3 && banderagol==0)
  3169                           
  3170                           
  3171                           ;Trayectoria.c: 653: {
  3172                           ;Trayectoria.c: 655: if(filaball<=0x08)
  3173  03BE  3009               	movlw	9
  3174  03BF  025E               	subwf	_filaball,w
  3175  03C0  1803               	skipnc
  3176  03C1  2C8B               	goto	l3616
  3177                           
  3178                           ;Trayectoria.c: 656: {
  3179                           ;Trayectoria.c: 657: if(filaball!=0x01)
  3180  03C2  035E               	decf	_filaball,w
  3181  03C3  1903               	btfsc	3,2
  3182  03C4  2C1D               	goto	l3596
  3183                           
  3184                           ;Trayectoria.c: 658: {
  3185                           ;Trayectoria.c: 659: if(ledball!=0x01)
  3186  03C5  035F               	decf	_ledball,w
  3187  03C6  1903               	btfsc	3,2
  3188  03C7  2D7C               	goto	l3642
  3189                           
  3190                           ;Trayectoria.c: 660: {
  3191                           ;Trayectoria.c: 661: barras(ledbarra1,ledbarra2);
  3192  03C8  087D               	movf	_ledbarra2,w
  3193  03C9  1683               	bsf	3,5	;RP0=1, select bank1
  3194  03CA  1303               	bcf	3,6	;RP1=0, select bank1
  3195  03CB  00E2               	movwf	??_Juego^(0+128)
  3196  03CC  0862               	movf	??_Juego^(0+128),w
  3197  03CD  1283               	bcf	3,5	;RP0=0, select bank0
  3198  03CE  1303               	bcf	3,6	;RP1=0, select bank0
  3199  03CF  00B5               	movwf	barras@posicionbarra2
  3200  03D0  085D               	movf	_ledbarra1,w
  3201  03D1  160A  118A  229A  120A  118A  	fcall	_barras
  3202                           
  3203                           ;Trayectoria.c: 662: enviardato2(0x01,0);
  3204  03D6  1283               	bcf	3,5	;RP0=0, select bank0
  3205  03D7  1303               	bcf	3,6	;RP1=0, select bank0
  3206  03D8  01AC               	clrf	enviardato2@dato
  3207  03D9  3001               	movlw	1
  3208  03DA  160A  118A  2167  120A  118A  	fcall	_enviardato2
  3209                           
  3210                           ;Trayectoria.c: 663: enviardato(filaball,0);
  3211  03DF  1283               	bcf	3,5	;RP0=0, select bank0
  3212  03E0  1303               	bcf	3,6	;RP1=0, select bank0
  3213  03E1  01AC               	clrf	enviardato@dato
  3214  03E2  085E               	movf	_filaball,w
  3215  03E3  160A  118A  2146  120A  118A  	fcall	_enviardato
  3216                           
  3217                           ;Trayectoria.c: 664: ledball=ledball/2;
  3218  03E8  3002               	movlw	2
  3219  03E9  1283               	bcf	3,5	;RP0=0, select bank0
  3220  03EA  1303               	bcf	3,6	;RP1=0, select bank0
  3221  03EB  00AC               	movwf	___awdiv@divisor
  3222  03EC  3000               	movlw	0
  3223  03ED  00AD               	movwf	___awdiv@divisor+1
  3224  03EE  085F               	movf	_ledball,w
  3225  03EF  1683               	bsf	3,5	;RP0=1, select bank1
  3226  03F0  1303               	bcf	3,6	;RP1=0, select bank1
  3227  03F1  00E2               	movwf	??_Juego^(0+128)
  3228  03F2  01E3               	clrf	(??_Juego^(0+128)+1)
  3229  03F3  0862               	movf	??_Juego^(0+128),w
  3230  03F4  1283               	bcf	3,5	;RP0=0, select bank0
  3231  03F5  1303               	bcf	3,6	;RP1=0, select bank0
  3232  03F6  00AE               	movwf	___awdiv@dividend
  3233  03F7  1683               	bsf	3,5	;RP0=1, select bank1
  3234  03F8  1303               	bcf	3,6	;RP1=0, select bank1
  3235  03F9  0863               	movf	(??_Juego+1)^(0+128),w
  3236  03FA  1283               	bcf	3,5	;RP0=0, select bank0
  3237  03FB  1303               	bcf	3,6	;RP1=0, select bank0
  3238  03FC  00AF               	movwf	___awdiv@dividend+1
  3239  03FD  160A  118A  21E1  120A  118A  	fcall	___awdiv
  3240  0402  1283               	bcf	3,5	;RP0=0, select bank0
  3241  0403  1303               	bcf	3,6	;RP1=0, select bank0
  3242  0404  082C               	movf	?___awdiv,w
  3243  0405  1683               	bsf	3,5	;RP0=1, select bank1
  3244  0406  1303               	bcf	3,6	;RP1=0, select bank1
  3245  0407  00E4               	movwf	(??_Juego+2)^(0+128)
  3246  0408  0864               	movf	(??_Juego+2)^(0+128),w
  3247  0409  1283               	bcf	3,5	;RP0=0, select bank0
  3248  040A  1303               	bcf	3,6	;RP1=0, select bank0
  3249  040B  00DF               	movwf	_ledball
  3250                           
  3251                           ;Trayectoria.c: 665: filaball--;
  3252  040C  3001               	movlw	1
  3253  040D  02DE               	subwf	_filaball,f
  3254                           
  3255                           ;Trayectoria.c: 666: enviardato(filaball,ledball);
  3256  040E  085F               	movf	_ledball,w
  3257  040F  1683               	bsf	3,5	;RP0=1, select bank1
  3258  0410  1303               	bcf	3,6	;RP1=0, select bank1
  3259  0411  00E2               	movwf	??_Juego^(0+128)
  3260  0412  0862               	movf	??_Juego^(0+128),w
  3261  0413  1283               	bcf	3,5	;RP0=0, select bank0
  3262  0414  1303               	bcf	3,6	;RP1=0, select bank0
  3263  0415  00AC               	movwf	enviardato@dato
  3264  0416  085E               	movf	_filaball,w
  3265  0417  160A  118A  2146  120A  118A  	fcall	_enviardato
  3266  041C  2D3B               	goto	L14
  3267  041D                     l3596:	
  3268                           ;Trayectoria.c: 673: }
  3269                           ;Trayectoria.c: 674: }
  3270                           
  3271                           ;Trayectoria.c: 672: barras(ledbarra1,ledbarra2);
  3272                           
  3273                           ;Trayectoria.c: 669: else
  3274                           ;Trayectoria.c: 670: {
  3275                           ;Trayectoria.c: 671: Trayectoria=2;
  3276                           
  3277                           ;Trayectoria.c: 668: }
  3278                           
  3279                           ;Trayectoria.c: 667: _delay((unsigned long)((tiempo)*(20000000/4000.0)));
  3280                           
  3281                           
  3282                           ;Trayectoria.c: 675: else
  3283                           ;Trayectoria.c: 676: {
  3284                           ;Trayectoria.c: 677: if(ledball==ledbarra1 || ledball==ledbarra1/2)
  3285  041D  1283               	bcf	3,5	;RP0=0, select bank0
  3286  041E  1303               	bcf	3,6	;RP1=0, select bank0
  3287  041F  085F               	movf	_ledball,w
  3288  0420  065D               	xorwf	_ledbarra1,w
  3289  0421  1903               	skipnz
  3290  0422  2C52               	goto	l3600
  3291  0423  3002               	movlw	2
  3292  0424  00AC               	movwf	___awdiv@divisor
  3293  0425  3000               	movlw	0
  3294  0426  00AD               	movwf	___awdiv@divisor+1
  3295  0427  085D               	movf	_ledbarra1,w
  3296  0428  1683               	bsf	3,5	;RP0=1, select bank1
  3297  0429  1303               	bcf	3,6	;RP1=0, select bank1
  3298  042A  00E2               	movwf	??_Juego^(0+128)
  3299  042B  01E3               	clrf	(??_Juego^(0+128)+1)
  3300  042C  0862               	movf	??_Juego^(0+128),w
  3301  042D  1283               	bcf	3,5	;RP0=0, select bank0
  3302  042E  1303               	bcf	3,6	;RP1=0, select bank0
  3303  042F  00AE               	movwf	___awdiv@dividend
  3304  0430  1683               	bsf	3,5	;RP0=1, select bank1
  3305  0431  1303               	bcf	3,6	;RP1=0, select bank1
  3306  0432  0863               	movf	(??_Juego+1)^(0+128),w
  3307  0433  1283               	bcf	3,5	;RP0=0, select bank0
  3308  0434  1303               	bcf	3,6	;RP1=0, select bank0
  3309  0435  00AF               	movwf	___awdiv@dividend+1
  3310  0436  160A  118A  21E1  120A  118A  	fcall	___awdiv
  3311  043B  1283               	bcf	3,5	;RP0=0, select bank0
  3312  043C  1303               	bcf	3,6	;RP1=0, select bank0
  3313  043D  085F               	movf	_ledball,w
  3314  043E  1683               	bsf	3,5	;RP0=1, select bank1
  3315  043F  1303               	bcf	3,6	;RP1=0, select bank1
  3316  0440  00E4               	movwf	(??_Juego+2)^(0+128)
  3317  0441  01E5               	clrf	((??_Juego+2)^(0+128)+1)
  3318  0442  1283               	bcf	3,5	;RP0=0, select bank0
  3319  0443  1303               	bcf	3,6	;RP1=0, select bank0
  3320  0444  082D               	movf	?___awdiv+1,w
  3321  0445  1683               	bsf	3,5	;RP0=1, select bank1
  3322  0446  1303               	bcf	3,6	;RP1=0, select bank1
  3323  0447  0665               	xorwf	(??_Juego+3)^(0+128),w
  3324  0448  1D03               	skipz
  3325  0449  2C50               	goto	u3895
  3326  044A  1283               	bcf	3,5	;RP0=0, select bank0
  3327  044B  1303               	bcf	3,6	;RP1=0, select bank0
  3328  044C  082C               	movf	?___awdiv,w
  3329  044D  1683               	bsf	3,5	;RP0=1, select bank1
  3330  044E  1303               	bcf	3,6	;RP1=0, select bank1
  3331  044F  0664               	xorwf	(??_Juego+2)^(0+128),w
  3332  0450                     u3895:	
  3333  0450  1D03               	skipz
  3334  0451  2C54               	goto	l3604
  3335  0452                     l3600:	
  3336                           
  3337                           ;Trayectoria.c: 678: {
  3338                           ;Trayectoria.c: 679: Trayectoria=4;
  3339  0452  3004               	movlw	4
  3340  0453  2D7D               	goto	L12
  3341  0454                     l3604:	
  3342                           ;Trayectoria.c: 681: }
  3343                           
  3344                           ;Trayectoria.c: 680: barras(ledbarra1,ledbarra2);
  3345                           
  3346                           
  3347                           ;Trayectoria.c: 682: else if (ledball==ledbarra1*2)
  3348  0454  1283               	bcf	3,5	;RP0=0, select bank0
  3349  0455  1303               	bcf	3,6	;RP1=0, select bank0
  3350  0456  085D               	movf	_ledbarra1,w
  3351  0457  1683               	bsf	3,5	;RP0=1, select bank1
  3352  0458  1303               	bcf	3,6	;RP1=0, select bank1
  3353  0459  00E2               	movwf	??_Juego^(0+128)
  3354  045A  01E3               	clrf	(??_Juego^(0+128)+1)
  3355  045B  1003               	clrc
  3356  045C  0DE2               	rlf	??_Juego^(0+128),f
  3357  045D  0DE3               	rlf	(??_Juego^(0+128)+1),f
  3358  045E  1283               	bcf	3,5	;RP0=0, select bank0
  3359  045F  1303               	bcf	3,6	;RP1=0, select bank0
  3360  0460  085F               	movf	_ledball,w
  3361  0461  1683               	bsf	3,5	;RP0=1, select bank1
  3362  0462  1303               	bcf	3,6	;RP1=0, select bank1
  3363  0463  00E4               	movwf	(??_Juego+2)^(0+128)
  3364  0464  01E5               	clrf	((??_Juego+2)^(0+128)+1)
  3365  0465  0863               	movf	(??_Juego+1)^(0+128),w
  3366  0466  0665               	xorwf	(??_Juego+3)^(0+128),w
  3367  0467  1D03               	skipz
  3368  0468  2C6B               	goto	u3905
  3369  0469  0862               	movf	??_Juego^(0+128),w
  3370  046A  0664               	xorwf	(??_Juego+2)^(0+128),w
  3371  046B                     u3905:	
  3372  046B  1D03               	skipz
  3373  046C  2C72               	goto	l364
  3374                           
  3375                           ;Trayectoria.c: 683: {
  3376                           ;Trayectoria.c: 684: Trayectoria=1;
  3377  046D  1283               	bcf	3,5	;RP0=0, select bank0
  3378  046E  1303               	bcf	3,6	;RP1=0, select bank0
  3379  046F  01DC               	clrf	_Trayectoria
  3380  0470  0ADC               	incf	_Trayectoria,f
  3381  0471  2D84               	goto	L13
  3382  0472                     l364:	
  3383                           ;Trayectoria.c: 686: }
  3384                           
  3385                           ;Trayectoria.c: 685: barras(ledbarra1,ledbarra2);
  3386                           
  3387                           
  3388                           ;Trayectoria.c: 687: else
  3389                           ;Trayectoria.c: 688: {
  3390                           ;Trayectoria.c: 689: gol1=1;
  3391  0472  1283               	bcf	3,5	;RP0=0, select bank0
  3392  0473  1303               	bcf	3,6	;RP1=0, select bank0
  3393  0474  01E0               	clrf	_gol1
  3394  0475  0AE0               	incf	_gol1,f
  3395                           
  3396                           ;Trayectoria.c: 690: banderagol=1;
  3397  0476  01D4               	clrf	_banderagol
  3398  0477  0AD4               	incf	_banderagol,f
  3399                           
  3400                           ;Trayectoria.c: 691: puntaje2++;
  3401  0478  3001               	movlw	1
  3402  0479  1683               	bsf	3,5	;RP0=1, select bank1
  3403  047A  1303               	bcf	3,6	;RP1=0, select bank1
  3404  047B  00E2               	movwf	??_Juego^(0+128)
  3405  047C  0862               	movf	??_Juego^(0+128),w
  3406  047D  1283               	bcf	3,5	;RP0=0, select bank0
  3407  047E  1303               	bcf	3,6	;RP1=0, select bank0
  3408  047F  07D5               	addwf	_puntaje2,f
  3409                           
  3410                           ;Trayectoria.c: 692: Gol();
  3411  0480  160A  118A  270D  120A  118A  	fcall	_Gol
  3412                           
  3413                           ;Trayectoria.c: 693: Marcador();
  3414  0485  120A  158A  23BF  120A  118A  	fcall	_Marcador
  3415                           
  3416                           ;Trayectoria.c: 694: }
  3417                           ;Trayectoria.c: 695: }
  3418                           ;Trayectoria.c: 697: }
  3419  048A  2D92               	goto	l3646
  3420  048B                     l3616:	
  3421                           
  3422                           ;Trayectoria.c: 698: else if(filaball==0x09){
  3423  048B  3009               	movlw	9
  3424  048C  1283               	bcf	3,5	;RP0=0, select bank0
  3425  048D  1303               	bcf	3,6	;RP1=0, select bank0
  3426  048E  065E               	xorwf	_filaball,w
  3427  048F  1D03               	btfss	3,2
  3428  0490  2CE9               	goto	l3632
  3429                           
  3430                           ;Trayectoria.c: 699: if(ledball!=0x01)
  3431  0491  035F               	decf	_ledball,w
  3432  0492  1903               	btfsc	3,2
  3433  0493  2D7C               	goto	l3642
  3434                           
  3435                           ;Trayectoria.c: 700: {
  3436                           ;Trayectoria.c: 701: barras(ledbarra1,ledbarra2);
  3437  0494  087D               	movf	_ledbarra2,w
  3438  0495  1683               	bsf	3,5	;RP0=1, select bank1
  3439  0496  1303               	bcf	3,6	;RP1=0, select bank1
  3440  0497  00E2               	movwf	??_Juego^(0+128)
  3441  0498  0862               	movf	??_Juego^(0+128),w
  3442  0499  1283               	bcf	3,5	;RP0=0, select bank0
  3443  049A  1303               	bcf	3,6	;RP1=0, select bank0
  3444  049B  00B5               	movwf	barras@posicionbarra2
  3445  049C  085D               	movf	_ledbarra1,w
  3446  049D  160A  118A  229A  120A  118A  	fcall	_barras
  3447                           
  3448                           ;Trayectoria.c: 702: enviardato2(0x01,0);
  3449  04A2  1283               	bcf	3,5	;RP0=0, select bank0
  3450  04A3  1303               	bcf	3,6	;RP1=0, select bank0
  3451  04A4  01AC               	clrf	enviardato2@dato
  3452  04A5  3001               	movlw	1
  3453  04A6  160A  118A  2167  120A  118A  	fcall	_enviardato2
  3454                           
  3455                           ;Trayectoria.c: 703: enviardato(filaball,0);
  3456  04AB  1283               	bcf	3,5	;RP0=0, select bank0
  3457  04AC  1303               	bcf	3,6	;RP1=0, select bank0
  3458  04AD  01AC               	clrf	enviardato@dato
  3459  04AE  085E               	movf	_filaball,w
  3460  04AF  160A  118A  2146  120A  118A  	fcall	_enviardato
  3461                           
  3462                           ;Trayectoria.c: 704: ledball=ledball/2;
  3463  04B4  3002               	movlw	2
  3464  04B5  1283               	bcf	3,5	;RP0=0, select bank0
  3465  04B6  1303               	bcf	3,6	;RP1=0, select bank0
  3466  04B7  00AC               	movwf	___awdiv@divisor
  3467  04B8  3000               	movlw	0
  3468  04B9  00AD               	movwf	___awdiv@divisor+1
  3469  04BA  085F               	movf	_ledball,w
  3470  04BB  1683               	bsf	3,5	;RP0=1, select bank1
  3471  04BC  1303               	bcf	3,6	;RP1=0, select bank1
  3472  04BD  00E2               	movwf	??_Juego^(0+128)
  3473  04BE  01E3               	clrf	(??_Juego^(0+128)+1)
  3474  04BF  0862               	movf	??_Juego^(0+128),w
  3475  04C0  1283               	bcf	3,5	;RP0=0, select bank0
  3476  04C1  1303               	bcf	3,6	;RP1=0, select bank0
  3477  04C2  00AE               	movwf	___awdiv@dividend
  3478  04C3  1683               	bsf	3,5	;RP0=1, select bank1
  3479  04C4  1303               	bcf	3,6	;RP1=0, select bank1
  3480  04C5  0863               	movf	(??_Juego+1)^(0+128),w
  3481  04C6  1283               	bcf	3,5	;RP0=0, select bank0
  3482  04C7  1303               	bcf	3,6	;RP1=0, select bank0
  3483  04C8  00AF               	movwf	___awdiv@dividend+1
  3484  04C9  160A  118A  21E1  120A  118A  	fcall	___awdiv
  3485  04CE  1283               	bcf	3,5	;RP0=0, select bank0
  3486  04CF  1303               	bcf	3,6	;RP1=0, select bank0
  3487  04D0  082C               	movf	?___awdiv,w
  3488  04D1  1683               	bsf	3,5	;RP0=1, select bank1
  3489  04D2  1303               	bcf	3,6	;RP1=0, select bank1
  3490  04D3  00E4               	movwf	(??_Juego+2)^(0+128)
  3491  04D4  0864               	movf	(??_Juego+2)^(0+128),w
  3492  04D5  1283               	bcf	3,5	;RP0=0, select bank0
  3493  04D6  1303               	bcf	3,6	;RP1=0, select bank0
  3494  04D7  00DF               	movwf	_ledball
  3495                           
  3496                           ;Trayectoria.c: 705: filaball--;
  3497  04D8  3001               	movlw	1
  3498  04D9  02DE               	subwf	_filaball,f
  3499                           
  3500                           ;Trayectoria.c: 706: enviardato(0x08,ledball);
  3501  04DA  085F               	movf	_ledball,w
  3502  04DB  1683               	bsf	3,5	;RP0=1, select bank1
  3503  04DC  1303               	bcf	3,6	;RP1=0, select bank1
  3504  04DD  00E2               	movwf	??_Juego^(0+128)
  3505  04DE  0862               	movf	??_Juego^(0+128),w
  3506  04DF  1283               	bcf	3,5	;RP0=0, select bank0
  3507  04E0  1303               	bcf	3,6	;RP1=0, select bank0
  3508  04E1  00AC               	movwf	enviardato@dato
  3509  04E2  3008               	movlw	8
  3510  04E3  160A  118A  2146  120A  118A  	fcall	_enviardato
  3511  04E8  2D3B               	goto	L14
  3512  04E9                     l3632:	
  3513                           ;Trayectoria.c: 713: }
  3514                           ;Trayectoria.c: 714: }
  3515                           
  3516                           ;Trayectoria.c: 712: barras(ledbarra1,ledbarra2);
  3517                           
  3518                           ;Trayectoria.c: 709: else
  3519                           ;Trayectoria.c: 710: {
  3520                           ;Trayectoria.c: 711: Trayectoria=2;
  3521                           
  3522                           ;Trayectoria.c: 708: }
  3523                           
  3524                           ;Trayectoria.c: 707: _delay((unsigned long)((tiempo)*(20000000/4000.0)));
  3525                           
  3526                           
  3527                           ;Trayectoria.c: 715: else
  3528                           ;Trayectoria.c: 716: {
  3529                           ;Trayectoria.c: 717: if(ledball!=0x01)
  3530  04E9  1283               	bcf	3,5	;RP0=0, select bank0
  3531  04EA  1303               	bcf	3,6	;RP1=0, select bank0
  3532  04EB  035F               	decf	_ledball,w
  3533  04EC  1903               	btfsc	3,2
  3534  04ED  2D7C               	goto	l3642
  3535                           
  3536                           ;Trayectoria.c: 718: {
  3537                           ;Trayectoria.c: 719: barras(ledbarra1,ledbarra2);
  3538  04EE  087D               	movf	_ledbarra2,w
  3539  04EF  1683               	bsf	3,5	;RP0=1, select bank1
  3540  04F0  1303               	bcf	3,6	;RP1=0, select bank1
  3541  04F1  00E2               	movwf	??_Juego^(0+128)
  3542  04F2  0862               	movf	??_Juego^(0+128),w
  3543  04F3  1283               	bcf	3,5	;RP0=0, select bank0
  3544  04F4  1303               	bcf	3,6	;RP1=0, select bank0
  3545  04F5  00B5               	movwf	barras@posicionbarra2
  3546  04F6  085D               	movf	_ledbarra1,w
  3547  04F7  160A  118A  229A  120A  118A  	fcall	_barras
  3548                           
  3549                           ;Trayectoria.c: 720: enviardato2(filaball-0x08,0);
  3550  04FC  1283               	bcf	3,5	;RP0=0, select bank0
  3551  04FD  1303               	bcf	3,6	;RP1=0, select bank0
  3552  04FE  01AC               	clrf	enviardato2@dato
  3553  04FF  085E               	movf	_filaball,w
  3554  0500  3EF8               	addlw	248
  3555  0501  160A  118A  2167  120A  118A  	fcall	_enviardato2
  3556                           
  3557                           ;Trayectoria.c: 721: ledball=ledball/2;
  3558  0506  3002               	movlw	2
  3559  0507  1283               	bcf	3,5	;RP0=0, select bank0
  3560  0508  1303               	bcf	3,6	;RP1=0, select bank0
  3561  0509  00AC               	movwf	___awdiv@divisor
  3562  050A  3000               	movlw	0
  3563  050B  00AD               	movwf	___awdiv@divisor+1
  3564  050C  085F               	movf	_ledball,w
  3565  050D  1683               	bsf	3,5	;RP0=1, select bank1
  3566  050E  1303               	bcf	3,6	;RP1=0, select bank1
  3567  050F  00E2               	movwf	??_Juego^(0+128)
  3568  0510  01E3               	clrf	(??_Juego^(0+128)+1)
  3569  0511  0862               	movf	??_Juego^(0+128),w
  3570  0512  1283               	bcf	3,5	;RP0=0, select bank0
  3571  0513  1303               	bcf	3,6	;RP1=0, select bank0
  3572  0514  00AE               	movwf	___awdiv@dividend
  3573  0515  1683               	bsf	3,5	;RP0=1, select bank1
  3574  0516  1303               	bcf	3,6	;RP1=0, select bank1
  3575  0517  0863               	movf	(??_Juego+1)^(0+128),w
  3576  0518  1283               	bcf	3,5	;RP0=0, select bank0
  3577  0519  1303               	bcf	3,6	;RP1=0, select bank0
  3578  051A  00AF               	movwf	___awdiv@dividend+1
  3579  051B  160A  118A  21E1  120A  118A  	fcall	___awdiv
  3580  0520  1283               	bcf	3,5	;RP0=0, select bank0
  3581  0521  1303               	bcf	3,6	;RP1=0, select bank0
  3582  0522  082C               	movf	?___awdiv,w
  3583  0523  1683               	bsf	3,5	;RP0=1, select bank1
  3584  0524  1303               	bcf	3,6	;RP1=0, select bank1
  3585  0525  00E4               	movwf	(??_Juego+2)^(0+128)
  3586  0526  0864               	movf	(??_Juego+2)^(0+128),w
  3587  0527  1283               	bcf	3,5	;RP0=0, select bank0
  3588  0528  1303               	bcf	3,6	;RP1=0, select bank0
  3589  0529  00DF               	movwf	_ledball
  3590                           
  3591                           ;Trayectoria.c: 722: filaball--;
  3592  052A  3001               	movlw	1
  3593  052B  02DE               	subwf	_filaball,f
  3594                           
  3595                           ;Trayectoria.c: 723: enviardato2(filaball-0x08,ledball);
  3596  052C  085F               	movf	_ledball,w
  3597  052D  1683               	bsf	3,5	;RP0=1, select bank1
  3598  052E  1303               	bcf	3,6	;RP1=0, select bank1
  3599  052F  00E2               	movwf	??_Juego^(0+128)
  3600  0530  0862               	movf	??_Juego^(0+128),w
  3601  0531  1283               	bcf	3,5	;RP0=0, select bank0
  3602  0532  1303               	bcf	3,6	;RP1=0, select bank0
  3603  0533  00AC               	movwf	enviardato2@dato
  3604  0534  085E               	movf	_filaball,w
  3605  0535  3EF8               	addlw	248
  3606  0536  160A  118A  2167  120A  118A  	fcall	_enviardato2
  3607  053B                     L14:	
  3608                           
  3609                           ;Trayectoria.c: 724: _delay((unsigned long)((tiempo)*(20000000/4000.0)));
  3610  053B  1283               	bcf	3,5	;RP0=0, select bank0
  3611  053C  1303               	bcf	3,6	;RP1=0, select bank0
  3612  053D  085B               	movf	_tiempo,w
  3613  053E  160A  118A  2128  120A  118A  	fcall	___lbtoft
  3614  0543  1283               	bcf	3,5	;RP0=0, select bank0
  3615  0544  1303               	bcf	3,6	;RP1=0, select bank0
  3616  0545  0834               	movf	?___lbtoft,w
  3617  0546  00BF               	movwf	___ftmul@f2
  3618  0547  0835               	movf	?___lbtoft+1,w
  3619  0548  00C0               	movwf	___ftmul@f2+1
  3620  0549  0836               	movf	?___lbtoft+2,w
  3621  054A  00C1               	movwf	___ftmul@f2+2
  3622  054B  3040               	movlw	64
  3623  054C  00BC               	movwf	___ftmul@f1
  3624  054D  309C               	movlw	156
  3625  054E  00BD               	movwf	___ftmul@f1+1
  3626  054F  3045               	movlw	69
  3627  0550  00BE               	movwf	___ftmul@f1+2
  3628  0551  160A  118A  254F  120A  118A  	fcall	___ftmul
  3629  0556  1283               	bcf	3,5	;RP0=0, select bank0
  3630  0557  1303               	bcf	3,6	;RP1=0, select bank0
  3631  0558  083C               	movf	?___ftmul,w
  3632  0559  00CC               	movwf	___fttol@f1
  3633  055A  083D               	movf	?___ftmul+1,w
  3634  055B  00CD               	movwf	___fttol@f1+1
  3635  055C  083E               	movf	?___ftmul+2,w
  3636  055D  00CE               	movwf	___fttol@f1+2
  3637  055E  160A  118A  2486  120A  118A  	fcall	___fttol
  3638  0563  1283               	bcf	3,5	;RP0=0, select bank0
  3639  0564  1303               	bcf	3,6	;RP1=0, select bank0
  3640  0565  084C               	movf	?___fttol,w
  3641  0566  1683               	bsf	3,5	;RP0=1, select bank1
  3642  0567  1303               	bcf	3,6	;RP1=0, select bank1
  3643  0568  00E2               	movwf	??_Juego^(0+128)
  3644  0569  1283               	bcf	3,5	;RP0=0, select bank0
  3645  056A  1303               	bcf	3,6	;RP1=0, select bank0
  3646  056B  084D               	movf	?___fttol+1,w
  3647  056C  1683               	bsf	3,5	;RP0=1, select bank1
  3648  056D  1303               	bcf	3,6	;RP1=0, select bank1
  3649  056E  00E3               	movwf	(??_Juego^(0+128)+1)
  3650  056F  1283               	bcf	3,5	;RP0=0, select bank0
  3651  0570  1303               	bcf	3,6	;RP1=0, select bank0
  3652  0571  084E               	movf	?___fttol+2,w
  3653  0572  1683               	bsf	3,5	;RP0=1, select bank1
  3654  0573  1303               	bcf	3,6	;RP1=0, select bank1
  3655  0574  00E4               	movwf	(??_Juego^(0+128)+2)
  3656  0575  1283               	bcf	3,5	;RP0=0, select bank0
  3657  0576  1303               	bcf	3,6	;RP1=0, select bank0
  3658  0577  084F               	movf	?___fttol+3,w
  3659  0578  1683               	bsf	3,5	;RP0=1, select bank1
  3660  0579  1303               	bcf	3,6	;RP1=0, select bank1
  3661  057A  00E5               	movwf	(??_Juego^(0+128)+3)
  3662                           
  3663                           ;Trayectoria.c: 725: }
  3664  057B  2D92               	goto	l3646
  3665  057C                     l3642:	
  3666                           
  3667                           ;Trayectoria.c: 726: else
  3668                           ;Trayectoria.c: 727: {
  3669                           ;Trayectoria.c: 728: Trayectoria=2;
  3670  057C  3002               	movlw	2
  3671  057D                     L12:	
  3672  057D  1683               	bsf	3,5	;RP0=1, select bank1
  3673  057E  1303               	bcf	3,6	;RP1=0, select bank1
  3674  057F  00E2               	movwf	??_Juego^(0+128)
  3675  0580  0862               	movf	??_Juego^(0+128),w
  3676  0581  1283               	bcf	3,5	;RP0=0, select bank0
  3677  0582  1303               	bcf	3,6	;RP1=0, select bank0
  3678  0583  00DC               	movwf	_Trayectoria
  3679  0584                     L13:	
  3680                           
  3681                           ;Trayectoria.c: 729: barras(ledbarra1,ledbarra2);
  3682  0584  087D               	movf	_ledbarra2,w
  3683  0585  1683               	bsf	3,5	;RP0=1, select bank1
  3684  0586  1303               	bcf	3,6	;RP1=0, select bank1
  3685  0587  00E2               	movwf	??_Juego^(0+128)
  3686  0588  0862               	movf	??_Juego^(0+128),w
  3687  0589  1283               	bcf	3,5	;RP0=0, select bank0
  3688  058A  1303               	bcf	3,6	;RP1=0, select bank0
  3689  058B  00B5               	movwf	barras@posicionbarra2
  3690  058C  085D               	movf	_ledbarra1,w
  3691  058D  160A  118A  229A  120A  118A  	fcall	_barras
  3692  0592                     l3646:	
  3693  0592  3003               	movlw	3
  3694  0593  1283               	bcf	3,5	;RP0=0, select bank0
  3695  0594  1303               	bcf	3,6	;RP1=0, select bank0
  3696  0595  065C               	xorwf	_Trayectoria,w
  3697  0596  1D03               	btfss	3,2
  3698  0597  2FB6               	goto	l3712
  3699  0598  0854               	movf	_banderagol,w
  3700  0599  1D03               	btfss	3,2
  3701  059A  2FB6               	goto	l3712
  3702  059B  2BBE               	goto	l3578
  3703  059C                     l3650:	
  3704                           ;Trayectoria.c: 730: }
  3705                           ;Trayectoria.c: 731: }
  3706                           ;Trayectoria.c: 732: }
  3707                           ;Trayectoria.c: 733: while(Trayectoria==4 && banderagol==0 )
  3708                           
  3709                           
  3710                           ;Trayectoria.c: 734: {
  3711                           ;Trayectoria.c: 736: if(filaball<0x08)
  3712  059C  3008               	movlw	8
  3713  059D  025E               	subwf	_filaball,w
  3714  059E  1803               	skipnc
  3715  059F  2E06               	goto	l3664
  3716                           
  3717                           ;Trayectoria.c: 737: {
  3718                           ;Trayectoria.c: 738: if(ledball!=0x01)
  3719  05A0  035F               	decf	_ledball,w
  3720  05A1  1903               	btfsc	3,2
  3721  05A2  2DF5               	goto	l379
  3722                           
  3723                           ;Trayectoria.c: 739: {
  3724                           ;Trayectoria.c: 740: barras(ledbarra1,ledbarra2);
  3725  05A3  087D               	movf	_ledbarra2,w
  3726  05A4  1683               	bsf	3,5	;RP0=1, select bank1
  3727  05A5  1303               	bcf	3,6	;RP1=0, select bank1
  3728  05A6  00E2               	movwf	??_Juego^(0+128)
  3729  05A7  0862               	movf	??_Juego^(0+128),w
  3730  05A8  1283               	bcf	3,5	;RP0=0, select bank0
  3731  05A9  1303               	bcf	3,6	;RP1=0, select bank0
  3732  05AA  00B5               	movwf	barras@posicionbarra2
  3733  05AB  085D               	movf	_ledbarra1,w
  3734  05AC  160A  118A  229A  120A  118A  	fcall	_barras
  3735                           
  3736                           ;Trayectoria.c: 741: enviardato(filaball,0);
  3737  05B1  1283               	bcf	3,5	;RP0=0, select bank0
  3738  05B2  1303               	bcf	3,6	;RP1=0, select bank0
  3739  05B3  01AC               	clrf	enviardato@dato
  3740  05B4  085E               	movf	_filaball,w
  3741  05B5  160A  118A  2146  120A  118A  	fcall	_enviardato
  3742                           
  3743                           ;Trayectoria.c: 742: ledball=ledball/2;
  3744  05BA  3002               	movlw	2
  3745  05BB  1283               	bcf	3,5	;RP0=0, select bank0
  3746  05BC  1303               	bcf	3,6	;RP1=0, select bank0
  3747  05BD  00AC               	movwf	___awdiv@divisor
  3748  05BE  3000               	movlw	0
  3749  05BF  00AD               	movwf	___awdiv@divisor+1
  3750  05C0  085F               	movf	_ledball,w
  3751  05C1  1683               	bsf	3,5	;RP0=1, select bank1
  3752  05C2  1303               	bcf	3,6	;RP1=0, select bank1
  3753  05C3  00E2               	movwf	??_Juego^(0+128)
  3754  05C4  01E3               	clrf	(??_Juego^(0+128)+1)
  3755  05C5  0862               	movf	??_Juego^(0+128),w
  3756  05C6  1283               	bcf	3,5	;RP0=0, select bank0
  3757  05C7  1303               	bcf	3,6	;RP1=0, select bank0
  3758  05C8  00AE               	movwf	___awdiv@dividend
  3759  05C9  1683               	bsf	3,5	;RP0=1, select bank1
  3760  05CA  1303               	bcf	3,6	;RP1=0, select bank1
  3761  05CB  0863               	movf	(??_Juego+1)^(0+128),w
  3762  05CC  1283               	bcf	3,5	;RP0=0, select bank0
  3763  05CD  1303               	bcf	3,6	;RP1=0, select bank0
  3764  05CE  00AF               	movwf	___awdiv@dividend+1
  3765  05CF  160A  118A  21E1  120A  118A  	fcall	___awdiv
  3766  05D4  1283               	bcf	3,5	;RP0=0, select bank0
  3767  05D5  1303               	bcf	3,6	;RP1=0, select bank0
  3768  05D6  082C               	movf	?___awdiv,w
  3769  05D7  1683               	bsf	3,5	;RP0=1, select bank1
  3770  05D8  1303               	bcf	3,6	;RP1=0, select bank1
  3771  05D9  00E4               	movwf	(??_Juego+2)^(0+128)
  3772  05DA  0864               	movf	(??_Juego+2)^(0+128),w
  3773  05DB  1283               	bcf	3,5	;RP0=0, select bank0
  3774  05DC  1303               	bcf	3,6	;RP1=0, select bank0
  3775  05DD  00DF               	movwf	_ledball
  3776                           
  3777                           ;Trayectoria.c: 743: filaball++;
  3778  05DE  3001               	movlw	1
  3779  05DF  1683               	bsf	3,5	;RP0=1, select bank1
  3780  05E0  1303               	bcf	3,6	;RP1=0, select bank1
  3781  05E1  00E2               	movwf	??_Juego^(0+128)
  3782  05E2  0862               	movf	??_Juego^(0+128),w
  3783  05E3  1283               	bcf	3,5	;RP0=0, select bank0
  3784  05E4  1303               	bcf	3,6	;RP1=0, select bank0
  3785  05E5  07DE               	addwf	_filaball,f
  3786                           
  3787                           ;Trayectoria.c: 744: enviardato(filaball,ledball);
  3788  05E6  085F               	movf	_ledball,w
  3789  05E7  1683               	bsf	3,5	;RP0=1, select bank1
  3790  05E8  1303               	bcf	3,6	;RP1=0, select bank1
  3791  05E9  00E2               	movwf	??_Juego^(0+128)
  3792  05EA  0862               	movf	??_Juego^(0+128),w
  3793  05EB  1283               	bcf	3,5	;RP0=0, select bank0
  3794  05EC  1303               	bcf	3,6	;RP1=0, select bank0
  3795  05ED  00AC               	movwf	enviardato@dato
  3796  05EE  085E               	movf	_filaball,w
  3797  05EF  160A  118A  2146  120A  118A  	fcall	_enviardato
  3798  05F4  2ED2               	goto	L18
  3799  05F5                     l379:	
  3800                           ;Trayectoria.c: 746: }
  3801                           
  3802                           ;Trayectoria.c: 745: _delay((unsigned long)((tiempo)*(20000000/4000.0)));
  3803                           
  3804                           
  3805                           ;Trayectoria.c: 747: else
  3806                           ;Trayectoria.c: 748: {
  3807                           ;Trayectoria.c: 749: Trayectoria=1;
  3808  05F5  01DC               	clrf	_Trayectoria
  3809  05F6  0ADC               	incf	_Trayectoria,f
  3810                           
  3811                           ;Trayectoria.c: 750: barras(ledbarra1,ledbarra2);
  3812  05F7  087D               	movf	_ledbarra2,w
  3813  05F8  1683               	bsf	3,5	;RP0=1, select bank1
  3814  05F9  1303               	bcf	3,6	;RP1=0, select bank1
  3815  05FA  00E2               	movwf	??_Juego^(0+128)
  3816  05FB  0862               	movf	??_Juego^(0+128),w
  3817  05FC  1283               	bcf	3,5	;RP0=0, select bank0
  3818  05FD  1303               	bcf	3,6	;RP1=0, select bank0
  3819  05FE  00B5               	movwf	barras@posicionbarra2
  3820  05FF  085D               	movf	_ledbarra1,w
  3821  0600  160A  118A  229A  120A  118A  	fcall	_barras
  3822                           
  3823                           ;Trayectoria.c: 751: }
  3824                           ;Trayectoria.c: 752: }
  3825  0605  2FB6               	goto	l3712
  3826  0606                     l3664:	
  3827                           
  3828                           ;Trayectoria.c: 753: else if(filaball==0x08){
  3829  0606  3008               	movlw	8
  3830  0607  1283               	bcf	3,5	;RP0=0, select bank0
  3831  0608  1303               	bcf	3,6	;RP1=0, select bank0
  3832  0609  065E               	xorwf	_filaball,w
  3833  060A  1D03               	btfss	3,2
  3834  060B  2E6D               	goto	l3678
  3835                           
  3836                           ;Trayectoria.c: 754: if(ledball!=0x01)
  3837  060C  035F               	decf	_ledball,w
  3838  060D  1903               	btfsc	3,2
  3839  060E  2E5C               	goto	l383
  3840                           
  3841                           ;Trayectoria.c: 755: {
  3842                           ;Trayectoria.c: 756: barras(ledbarra1,ledbarra2);
  3843  060F  087D               	movf	_ledbarra2,w
  3844  0610  1683               	bsf	3,5	;RP0=1, select bank1
  3845  0611  1303               	bcf	3,6	;RP1=0, select bank1
  3846  0612  00E2               	movwf	??_Juego^(0+128)
  3847  0613  0862               	movf	??_Juego^(0+128),w
  3848  0614  1283               	bcf	3,5	;RP0=0, select bank0
  3849  0615  1303               	bcf	3,6	;RP1=0, select bank0
  3850  0616  00B5               	movwf	barras@posicionbarra2
  3851  0617  085D               	movf	_ledbarra1,w
  3852  0618  160A  118A  229A  120A  118A  	fcall	_barras
  3853                           
  3854                           ;Trayectoria.c: 757: enviardato(filaball,0);
  3855  061D  1283               	bcf	3,5	;RP0=0, select bank0
  3856  061E  1303               	bcf	3,6	;RP1=0, select bank0
  3857  061F  01AC               	clrf	enviardato@dato
  3858  0620  085E               	movf	_filaball,w
  3859  0621  160A  118A  2146  120A  118A  	fcall	_enviardato
  3860                           
  3861                           ;Trayectoria.c: 758: ledball=ledball/2;
  3862  0626  3002               	movlw	2
  3863  0627  1283               	bcf	3,5	;RP0=0, select bank0
  3864  0628  1303               	bcf	3,6	;RP1=0, select bank0
  3865  0629  00AC               	movwf	___awdiv@divisor
  3866  062A  3000               	movlw	0
  3867  062B  00AD               	movwf	___awdiv@divisor+1
  3868  062C  085F               	movf	_ledball,w
  3869  062D  1683               	bsf	3,5	;RP0=1, select bank1
  3870  062E  1303               	bcf	3,6	;RP1=0, select bank1
  3871  062F  00E2               	movwf	??_Juego^(0+128)
  3872  0630  01E3               	clrf	(??_Juego^(0+128)+1)
  3873  0631  0862               	movf	??_Juego^(0+128),w
  3874  0632  1283               	bcf	3,5	;RP0=0, select bank0
  3875  0633  1303               	bcf	3,6	;RP1=0, select bank0
  3876  0634  00AE               	movwf	___awdiv@dividend
  3877  0635  1683               	bsf	3,5	;RP0=1, select bank1
  3878  0636  1303               	bcf	3,6	;RP1=0, select bank1
  3879  0637  0863               	movf	(??_Juego+1)^(0+128),w
  3880  0638  1283               	bcf	3,5	;RP0=0, select bank0
  3881  0639  1303               	bcf	3,6	;RP1=0, select bank0
  3882  063A  00AF               	movwf	___awdiv@dividend+1
  3883  063B  160A  118A  21E1  120A  118A  	fcall	___awdiv
  3884  0640  1283               	bcf	3,5	;RP0=0, select bank0
  3885  0641  1303               	bcf	3,6	;RP1=0, select bank0
  3886  0642  082C               	movf	?___awdiv,w
  3887  0643  1683               	bsf	3,5	;RP0=1, select bank1
  3888  0644  1303               	bcf	3,6	;RP1=0, select bank1
  3889  0645  00E4               	movwf	(??_Juego+2)^(0+128)
  3890  0646  0864               	movf	(??_Juego+2)^(0+128),w
  3891  0647  1283               	bcf	3,5	;RP0=0, select bank0
  3892  0648  1303               	bcf	3,6	;RP1=0, select bank0
  3893  0649  00DF               	movwf	_ledball
  3894                           
  3895                           ;Trayectoria.c: 759: filaball++;
  3896  064A  3001               	movlw	1
  3897  064B  1683               	bsf	3,5	;RP0=1, select bank1
  3898  064C  1303               	bcf	3,6	;RP1=0, select bank1
  3899  064D  00E2               	movwf	??_Juego^(0+128)
  3900  064E  0862               	movf	??_Juego^(0+128),w
  3901  064F  1283               	bcf	3,5	;RP0=0, select bank0
  3902  0650  1303               	bcf	3,6	;RP1=0, select bank0
  3903  0651  07DE               	addwf	_filaball,f
  3904                           
  3905                           ;Trayectoria.c: 760: enviardato2(0x01,ledball);
  3906  0652  085F               	movf	_ledball,w
  3907  0653  1683               	bsf	3,5	;RP0=1, select bank1
  3908  0654  1303               	bcf	3,6	;RP1=0, select bank1
  3909  0655  00E2               	movwf	??_Juego^(0+128)
  3910  0656  0862               	movf	??_Juego^(0+128),w
  3911  0657  1283               	bcf	3,5	;RP0=0, select bank0
  3912  0658  1303               	bcf	3,6	;RP1=0, select bank0
  3913  0659  00AC               	movwf	enviardato2@dato
  3914  065A  3001               	movlw	1
  3915  065B  2ECD               	goto	L15
  3916  065C                     l383:	
  3917                           ;Trayectoria.c: 762: }
  3918                           
  3919                           ;Trayectoria.c: 761: _delay((unsigned long)((tiempo)*(20000000/4000.0)));
  3920                           
  3921                           
  3922                           ;Trayectoria.c: 763: else
  3923                           ;Trayectoria.c: 764: {
  3924                           ;Trayectoria.c: 765: Trayectoria=1;
  3925  065C  01DC               	clrf	_Trayectoria
  3926  065D  0ADC               	incf	_Trayectoria,f
  3927                           
  3928                           ;Trayectoria.c: 766: barras(ledbarra1,ledbarra2);
  3929  065E  087D               	movf	_ledbarra2,w
  3930  065F  1683               	bsf	3,5	;RP0=1, select bank1
  3931  0660  1303               	bcf	3,6	;RP1=0, select bank1
  3932  0661  00E2               	movwf	??_Juego^(0+128)
  3933  0662  0862               	movf	??_Juego^(0+128),w
  3934  0663  1283               	bcf	3,5	;RP0=0, select bank0
  3935  0664  1303               	bcf	3,6	;RP1=0, select bank0
  3936  0665  00B5               	movwf	barras@posicionbarra2
  3937  0666  085D               	movf	_ledbarra1,w
  3938  0667  160A  118A  229A  120A  118A  	fcall	_barras
  3939                           
  3940                           ;Trayectoria.c: 767: }
  3941                           ;Trayectoria.c: 768: }
  3942  066C  2FB6               	goto	l3712
  3943  066D                     l3678:	
  3944                           
  3945                           ;Trayectoria.c: 769: else
  3946                           ;Trayectoria.c: 770: {
  3947                           ;Trayectoria.c: 771: if(filaball!=0x10)
  3948  066D  3010               	movlw	16
  3949  066E  1283               	bcf	3,5	;RP0=0, select bank0
  3950  066F  1303               	bcf	3,6	;RP1=0, select bank0
  3951  0670  065E               	xorwf	_filaball,w
  3952  0671  1903               	btfsc	3,2
  3953  0672  2F24               	goto	l3692
  3954                           
  3955                           ;Trayectoria.c: 772: {
  3956                           ;Trayectoria.c: 773: if(ledball!=0x01)
  3957  0673  035F               	decf	_ledball,w
  3958  0674  1903               	btfsc	3,2
  3959  0675  2F13               	goto	l387
  3960                           
  3961                           ;Trayectoria.c: 774: {
  3962                           ;Trayectoria.c: 775: barras(ledbarra1,ledbarra2);
  3963  0676  087D               	movf	_ledbarra2,w
  3964  0677  1683               	bsf	3,5	;RP0=1, select bank1
  3965  0678  1303               	bcf	3,6	;RP1=0, select bank1
  3966  0679  00E2               	movwf	??_Juego^(0+128)
  3967  067A  0862               	movf	??_Juego^(0+128),w
  3968  067B  1283               	bcf	3,5	;RP0=0, select bank0
  3969  067C  1303               	bcf	3,6	;RP1=0, select bank0
  3970  067D  00B5               	movwf	barras@posicionbarra2
  3971  067E  085D               	movf	_ledbarra1,w
  3972  067F  160A  118A  229A  120A  118A  	fcall	_barras
  3973                           
  3974                           ;Trayectoria.c: 776: enviardato(0x08,0);
  3975  0684  1283               	bcf	3,5	;RP0=0, select bank0
  3976  0685  1303               	bcf	3,6	;RP1=0, select bank0
  3977  0686  01AC               	clrf	enviardato@dato
  3978  0687  3008               	movlw	8
  3979  0688  160A  118A  2146  120A  118A  	fcall	_enviardato
  3980                           
  3981                           ;Trayectoria.c: 777: enviardato2((filaball-0x08),0);
  3982  068D  1283               	bcf	3,5	;RP0=0, select bank0
  3983  068E  1303               	bcf	3,6	;RP1=0, select bank0
  3984  068F  01AC               	clrf	enviardato2@dato
  3985  0690  085E               	movf	_filaball,w
  3986  0691  3EF8               	addlw	248
  3987  0692  160A  118A  2167  120A  118A  	fcall	_enviardato2
  3988                           
  3989                           ;Trayectoria.c: 778: ledball=ledball/2;
  3990  0697  3002               	movlw	2
  3991  0698  1283               	bcf	3,5	;RP0=0, select bank0
  3992  0699  1303               	bcf	3,6	;RP1=0, select bank0
  3993  069A  00AC               	movwf	___awdiv@divisor
  3994  069B  3000               	movlw	0
  3995  069C  00AD               	movwf	___awdiv@divisor+1
  3996  069D  085F               	movf	_ledball,w
  3997  069E  1683               	bsf	3,5	;RP0=1, select bank1
  3998  069F  1303               	bcf	3,6	;RP1=0, select bank1
  3999  06A0  00E2               	movwf	??_Juego^(0+128)
  4000  06A1  01E3               	clrf	(??_Juego^(0+128)+1)
  4001  06A2  0862               	movf	??_Juego^(0+128),w
  4002  06A3  1283               	bcf	3,5	;RP0=0, select bank0
  4003  06A4  1303               	bcf	3,6	;RP1=0, select bank0
  4004  06A5  00AE               	movwf	___awdiv@dividend
  4005  06A6  1683               	bsf	3,5	;RP0=1, select bank1
  4006  06A7  1303               	bcf	3,6	;RP1=0, select bank1
  4007  06A8  0863               	movf	(??_Juego+1)^(0+128),w
  4008  06A9  1283               	bcf	3,5	;RP0=0, select bank0
  4009  06AA  1303               	bcf	3,6	;RP1=0, select bank0
  4010  06AB  00AF               	movwf	___awdiv@dividend+1
  4011  06AC  160A  118A  21E1  120A  118A  	fcall	___awdiv
  4012  06B1  1283               	bcf	3,5	;RP0=0, select bank0
  4013  06B2  1303               	bcf	3,6	;RP1=0, select bank0
  4014  06B3  082C               	movf	?___awdiv,w
  4015  06B4  1683               	bsf	3,5	;RP0=1, select bank1
  4016  06B5  1303               	bcf	3,6	;RP1=0, select bank1
  4017  06B6  00E4               	movwf	(??_Juego+2)^(0+128)
  4018  06B7  0864               	movf	(??_Juego+2)^(0+128),w
  4019  06B8  1283               	bcf	3,5	;RP0=0, select bank0
  4020  06B9  1303               	bcf	3,6	;RP1=0, select bank0
  4021  06BA  00DF               	movwf	_ledball
  4022                           
  4023                           ;Trayectoria.c: 779: filaball++;
  4024  06BB  3001               	movlw	1
  4025  06BC  1683               	bsf	3,5	;RP0=1, select bank1
  4026  06BD  1303               	bcf	3,6	;RP1=0, select bank1
  4027  06BE  00E2               	movwf	??_Juego^(0+128)
  4028  06BF  0862               	movf	??_Juego^(0+128),w
  4029  06C0  1283               	bcf	3,5	;RP0=0, select bank0
  4030  06C1  1303               	bcf	3,6	;RP1=0, select bank0
  4031  06C2  07DE               	addwf	_filaball,f
  4032                           
  4033                           ;Trayectoria.c: 780: enviardato2((filaball-0x08),ledball);
  4034  06C3  085F               	movf	_ledball,w
  4035  06C4  1683               	bsf	3,5	;RP0=1, select bank1
  4036  06C5  1303               	bcf	3,6	;RP1=0, select bank1
  4037  06C6  00E2               	movwf	??_Juego^(0+128)
  4038  06C7  0862               	movf	??_Juego^(0+128),w
  4039  06C8  1283               	bcf	3,5	;RP0=0, select bank0
  4040  06C9  1303               	bcf	3,6	;RP1=0, select bank0
  4041  06CA  00AC               	movwf	enviardato2@dato
  4042  06CB  085E               	movf	_filaball,w
  4043  06CC  3EF8               	addlw	248
  4044  06CD                     L15:	
  4045  06CD  160A  118A  2167  120A  118A  	fcall	_enviardato2
  4046  06D2                     L18:	
  4047                           
  4048                           ;Trayectoria.c: 781: _delay((unsigned long)((tiempo)*(20000000/4000.0)));
  4049  06D2  1283               	bcf	3,5	;RP0=0, select bank0
  4050  06D3  1303               	bcf	3,6	;RP1=0, select bank0
  4051  06D4  085B               	movf	_tiempo,w
  4052  06D5  160A  118A  2128  120A  118A  	fcall	___lbtoft
  4053  06DA  1283               	bcf	3,5	;RP0=0, select bank0
  4054  06DB  1303               	bcf	3,6	;RP1=0, select bank0
  4055  06DC  0834               	movf	?___lbtoft,w
  4056  06DD  00BF               	movwf	___ftmul@f2
  4057  06DE  0835               	movf	?___lbtoft+1,w
  4058  06DF  00C0               	movwf	___ftmul@f2+1
  4059  06E0  0836               	movf	?___lbtoft+2,w
  4060  06E1  00C1               	movwf	___ftmul@f2+2
  4061  06E2  3040               	movlw	64
  4062  06E3  00BC               	movwf	___ftmul@f1
  4063  06E4  309C               	movlw	156
  4064  06E5  00BD               	movwf	___ftmul@f1+1
  4065  06E6  3045               	movlw	69
  4066  06E7  00BE               	movwf	___ftmul@f1+2
  4067  06E8  160A  118A  254F  120A  118A  	fcall	___ftmul
  4068  06ED  1283               	bcf	3,5	;RP0=0, select bank0
  4069  06EE  1303               	bcf	3,6	;RP1=0, select bank0
  4070  06EF  083C               	movf	?___ftmul,w
  4071  06F0  00CC               	movwf	___fttol@f1
  4072  06F1  083D               	movf	?___ftmul+1,w
  4073  06F2  00CD               	movwf	___fttol@f1+1
  4074  06F3  083E               	movf	?___ftmul+2,w
  4075  06F4  00CE               	movwf	___fttol@f1+2
  4076  06F5  160A  118A  2486  120A  118A  	fcall	___fttol
  4077  06FA  1283               	bcf	3,5	;RP0=0, select bank0
  4078  06FB  1303               	bcf	3,6	;RP1=0, select bank0
  4079  06FC  084C               	movf	?___fttol,w
  4080  06FD  1683               	bsf	3,5	;RP0=1, select bank1
  4081  06FE  1303               	bcf	3,6	;RP1=0, select bank1
  4082  06FF  00E2               	movwf	??_Juego^(0+128)
  4083  0700  1283               	bcf	3,5	;RP0=0, select bank0
  4084  0701  1303               	bcf	3,6	;RP1=0, select bank0
  4085  0702  084D               	movf	?___fttol+1,w
  4086  0703  1683               	bsf	3,5	;RP0=1, select bank1
  4087  0704  1303               	bcf	3,6	;RP1=0, select bank1
  4088  0705  00E3               	movwf	(??_Juego^(0+128)+1)
  4089  0706  1283               	bcf	3,5	;RP0=0, select bank0
  4090  0707  1303               	bcf	3,6	;RP1=0, select bank0
  4091  0708  084E               	movf	?___fttol+2,w
  4092  0709  1683               	bsf	3,5	;RP0=1, select bank1
  4093  070A  1303               	bcf	3,6	;RP1=0, select bank1
  4094  070B  00E4               	movwf	(??_Juego^(0+128)+2)
  4095  070C  1283               	bcf	3,5	;RP0=0, select bank0
  4096  070D  1303               	bcf	3,6	;RP1=0, select bank0
  4097  070E  084F               	movf	?___fttol+3,w
  4098  070F  1683               	bsf	3,5	;RP0=1, select bank1
  4099  0710  1303               	bcf	3,6	;RP1=0, select bank1
  4100  0711  00E5               	movwf	(??_Juego^(0+128)+3)
  4101                           
  4102                           ;Trayectoria.c: 782: }
  4103  0712  2FB6               	goto	l3712
  4104  0713                     l387:	
  4105                           
  4106                           ;Trayectoria.c: 783: else
  4107                           ;Trayectoria.c: 784: {
  4108                           ;Trayectoria.c: 785: Trayectoria=1;
  4109  0713  01DC               	clrf	_Trayectoria
  4110  0714  0ADC               	incf	_Trayectoria,f
  4111                           
  4112                           ;Trayectoria.c: 786: barras(ledbarra1,ledbarra2);
  4113  0715  087D               	movf	_ledbarra2,w
  4114  0716  1683               	bsf	3,5	;RP0=1, select bank1
  4115  0717  1303               	bcf	3,6	;RP1=0, select bank1
  4116  0718  00E2               	movwf	??_Juego^(0+128)
  4117  0719  0862               	movf	??_Juego^(0+128),w
  4118  071A  1283               	bcf	3,5	;RP0=0, select bank0
  4119  071B  1303               	bcf	3,6	;RP1=0, select bank0
  4120  071C  00B5               	movwf	barras@posicionbarra2
  4121  071D  085D               	movf	_ledbarra1,w
  4122  071E  160A  118A  229A  120A  118A  	fcall	_barras
  4123                           
  4124                           ;Trayectoria.c: 787: }
  4125                           ;Trayectoria.c: 788: }
  4126  0723  2FB6               	goto	l3712
  4127  0724                     l3692:	
  4128                           
  4129                           ;Trayectoria.c: 789: else
  4130                           ;Trayectoria.c: 790: {
  4131                           ;Trayectoria.c: 791: if(ledball==ledbarra2 || ledball==ledbarra2*2)
  4132  0724  1283               	bcf	3,5	;RP0=0, select bank0
  4133  0725  1303               	bcf	3,6	;RP1=0, select bank0
  4134  0726  085F               	movf	_ledball,w
  4135  0727  067D               	xorwf	_ledbarra2,w
  4136  0728  1903               	skipnz
  4137  0729  2F41               	goto	l3696
  4138  072A  087D               	movf	_ledbarra2,w
  4139  072B  1683               	bsf	3,5	;RP0=1, select bank1
  4140  072C  1303               	bcf	3,6	;RP1=0, select bank1
  4141  072D  00E2               	movwf	??_Juego^(0+128)
  4142  072E  01E3               	clrf	(??_Juego^(0+128)+1)
  4143  072F  1003               	clrc
  4144  0730  0DE2               	rlf	??_Juego^(0+128),f
  4145  0731  0DE3               	rlf	(??_Juego^(0+128)+1),f
  4146  0732  1283               	bcf	3,5	;RP0=0, select bank0
  4147  0733  1303               	bcf	3,6	;RP1=0, select bank0
  4148  0734  085F               	movf	_ledball,w
  4149  0735  1683               	bsf	3,5	;RP0=1, select bank1
  4150  0736  1303               	bcf	3,6	;RP1=0, select bank1
  4151  0737  00E4               	movwf	(??_Juego+2)^(0+128)
  4152  0738  01E5               	clrf	((??_Juego+2)^(0+128)+1)
  4153  0739  0863               	movf	(??_Juego+1)^(0+128),w
  4154  073A  0665               	xorwf	(??_Juego+3)^(0+128),w
  4155  073B  1D03               	skipz
  4156  073C  2F3F               	goto	u4035
  4157  073D  0862               	movf	??_Juego^(0+128),w
  4158  073E  0664               	xorwf	(??_Juego+2)^(0+128),w
  4159  073F                     u4035:	
  4160  073F  1D03               	skipz
  4161  0740  2F58               	goto	l3700
  4162  0741                     l3696:	
  4163                           
  4164                           ;Trayectoria.c: 792: {
  4165                           ;Trayectoria.c: 793: Trayectoria=2;
  4166  0741  3002               	movlw	2
  4167  0742  1683               	bsf	3,5	;RP0=1, select bank1
  4168  0743  1303               	bcf	3,6	;RP1=0, select bank1
  4169  0744  00E2               	movwf	??_Juego^(0+128)
  4170  0745  0862               	movf	??_Juego^(0+128),w
  4171  0746  1283               	bcf	3,5	;RP0=0, select bank0
  4172  0747  1303               	bcf	3,6	;RP1=0, select bank0
  4173  0748  00DC               	movwf	_Trayectoria
  4174                           
  4175                           ;Trayectoria.c: 794: barras(ledbarra1,ledbarra2);
  4176  0749  087D               	movf	_ledbarra2,w
  4177  074A  1683               	bsf	3,5	;RP0=1, select bank1
  4178  074B  1303               	bcf	3,6	;RP1=0, select bank1
  4179  074C  00E2               	movwf	??_Juego^(0+128)
  4180  074D  0862               	movf	??_Juego^(0+128),w
  4181  074E  1283               	bcf	3,5	;RP0=0, select bank0
  4182  074F  1303               	bcf	3,6	;RP1=0, select bank0
  4183  0750  00B5               	movwf	barras@posicionbarra2
  4184  0751  085D               	movf	_ledbarra1,w
  4185  0752  160A  118A  229A  120A  118A  	fcall	_barras
  4186                           
  4187                           ;Trayectoria.c: 795: }
  4188  0757  2FB6               	goto	l3712
  4189  0758                     l3700:	
  4190                           
  4191                           ;Trayectoria.c: 796: else if (ledball==ledbarra2/2)
  4192  0758  3002               	movlw	2
  4193  0759  1283               	bcf	3,5	;RP0=0, select bank0
  4194  075A  1303               	bcf	3,6	;RP1=0, select bank0
  4195  075B  00AC               	movwf	___awdiv@divisor
  4196  075C  3000               	movlw	0
  4197  075D  00AD               	movwf	___awdiv@divisor+1
  4198  075E  087D               	movf	_ledbarra2,w
  4199  075F  1683               	bsf	3,5	;RP0=1, select bank1
  4200  0760  1303               	bcf	3,6	;RP1=0, select bank1
  4201  0761  00E2               	movwf	??_Juego^(0+128)
  4202  0762  01E3               	clrf	(??_Juego^(0+128)+1)
  4203  0763  0862               	movf	??_Juego^(0+128),w
  4204  0764  1283               	bcf	3,5	;RP0=0, select bank0
  4205  0765  1303               	bcf	3,6	;RP1=0, select bank0
  4206  0766  00AE               	movwf	___awdiv@dividend
  4207  0767  1683               	bsf	3,5	;RP0=1, select bank1
  4208  0768  1303               	bcf	3,6	;RP1=0, select bank1
  4209  0769  0863               	movf	(??_Juego+1)^(0+128),w
  4210  076A  1283               	bcf	3,5	;RP0=0, select bank0
  4211  076B  1303               	bcf	3,6	;RP1=0, select bank0
  4212  076C  00AF               	movwf	___awdiv@dividend+1
  4213  076D  160A  118A  21E1  120A  118A  	fcall	___awdiv
  4214  0772  1283               	bcf	3,5	;RP0=0, select bank0
  4215  0773  1303               	bcf	3,6	;RP1=0, select bank0
  4216  0774  085F               	movf	_ledball,w
  4217  0775  1683               	bsf	3,5	;RP0=1, select bank1
  4218  0776  1303               	bcf	3,6	;RP1=0, select bank1
  4219  0777  00E4               	movwf	(??_Juego+2)^(0+128)
  4220  0778  01E5               	clrf	((??_Juego+2)^(0+128)+1)
  4221  0779  1283               	bcf	3,5	;RP0=0, select bank0
  4222  077A  1303               	bcf	3,6	;RP1=0, select bank0
  4223  077B  082D               	movf	?___awdiv+1,w
  4224  077C  1683               	bsf	3,5	;RP0=1, select bank1
  4225  077D  1303               	bcf	3,6	;RP1=0, select bank1
  4226  077E  0665               	xorwf	(??_Juego+3)^(0+128),w
  4227  077F  1D03               	skipz
  4228  0780  2F87               	goto	u4045
  4229  0781  1283               	bcf	3,5	;RP0=0, select bank0
  4230  0782  1303               	bcf	3,6	;RP1=0, select bank0
  4231  0783  082C               	movf	?___awdiv,w
  4232  0784  1683               	bsf	3,5	;RP0=1, select bank1
  4233  0785  1303               	bcf	3,6	;RP1=0, select bank1
  4234  0786  0664               	xorwf	(??_Juego+2)^(0+128),w
  4235  0787                     u4045:	
  4236  0787  1D03               	skipz
  4237  0788  2F9E               	goto	l394
  4238                           
  4239                           ;Trayectoria.c: 797: {
  4240                           ;Trayectoria.c: 798: Trayectoria=3;
  4241  0789  3003               	movlw	3
  4242  078A  00E2               	movwf	??_Juego^(0+128)
  4243  078B  0862               	movf	??_Juego^(0+128),w
  4244  078C  1283               	bcf	3,5	;RP0=0, select bank0
  4245  078D  1303               	bcf	3,6	;RP1=0, select bank0
  4246  078E  00DC               	movwf	_Trayectoria
  4247                           
  4248                           ;Trayectoria.c: 799: barras(ledbarra1,ledbarra2);
  4249  078F  087D               	movf	_ledbarra2,w
  4250  0790  1683               	bsf	3,5	;RP0=1, select bank1
  4251  0791  1303               	bcf	3,6	;RP1=0, select bank1
  4252  0792  00E2               	movwf	??_Juego^(0+128)
  4253  0793  0862               	movf	??_Juego^(0+128),w
  4254  0794  1283               	bcf	3,5	;RP0=0, select bank0
  4255  0795  1303               	bcf	3,6	;RP1=0, select bank0
  4256  0796  00B5               	movwf	barras@posicionbarra2
  4257  0797  085D               	movf	_ledbarra1,w
  4258  0798  160A  118A  229A  120A  118A  	fcall	_barras
  4259                           
  4260                           ;Trayectoria.c: 800: }
  4261  079D  2FB6               	goto	l3712
  4262  079E                     l394:	
  4263                           
  4264                           ;Trayectoria.c: 801: else
  4265                           ;Trayectoria.c: 802: {
  4266                           ;Trayectoria.c: 803: gol2=1;
  4267  079E  1283               	bcf	3,5	;RP0=0, select bank0
  4268  079F  1303               	bcf	3,6	;RP1=0, select bank0
  4269  07A0  01D7               	clrf	_gol2
  4270  07A1  0AD7               	incf	_gol2,f
  4271                           
  4272                           ;Trayectoria.c: 804: banderagol=1;
  4273  07A2  01D4               	clrf	_banderagol
  4274  07A3  0AD4               	incf	_banderagol,f
  4275                           
  4276                           ;Trayectoria.c: 805: puntaje1++;
  4277  07A4  3001               	movlw	1
  4278  07A5  1683               	bsf	3,5	;RP0=1, select bank1
  4279  07A6  1303               	bcf	3,6	;RP1=0, select bank1
  4280  07A7  00E2               	movwf	??_Juego^(0+128)
  4281  07A8  0862               	movf	??_Juego^(0+128),w
  4282  07A9  1283               	bcf	3,5	;RP0=0, select bank0
  4283  07AA  1303               	bcf	3,6	;RP1=0, select bank0
  4284  07AB  07D6               	addwf	_puntaje1,f
  4285                           
  4286                           ;Trayectoria.c: 806: Gol();
  4287  07AC  160A  118A  270D  120A  118A  	fcall	_Gol
  4288                           
  4289                           ;Trayectoria.c: 807: Marcador();
  4290  07B1  120A  158A  23BF  120A  118A  	fcall	_Marcador
  4291  07B6                     l3712:	
  4292  07B6  3004               	movlw	4
  4293  07B7  1283               	bcf	3,5	;RP0=0, select bank0
  4294  07B8  1303               	bcf	3,6	;RP1=0, select bank0
  4295  07B9  065C               	xorwf	_Trayectoria,w
  4296  07BA  1903               	btfsc	3,2
  4297  07BB  0854               	movf	_banderagol,w
  4298  07BC  1903               	btfsc	3,2
  4299  07BD  2D9C               	goto	l3650
  4300                           
  4301                           ;Trayectoria.c: 808: }
  4302                           ;Trayectoria.c: 809: }
  4303                           ;Trayectoria.c: 811: }
  4304                           ;Trayectoria.c: 813: }
  4305                           ;Trayectoria.c: 814: if(banderagol==1)
  4306  07BE  0354               	decf	_banderagol,w
  4307  07BF  1D03               	btfss	3,2
  4308  07C0  0008               	return
  4309                           
  4310                           ;Trayectoria.c: 815: {
  4311                           ;Trayectoria.c: 816: banderagol=0;
  4312  07C1  01D4               	clrf	_banderagol
  4313                           
  4314                           ;Trayectoria.c: 817: Saque();
  4315  07C2  160A  118A  23F0   	fcall	_Saque
  4316                           
  4317                           ;Trayectoria.c: 818: saque=1;
  4318  07C5  1283               	bcf	3,5	;RP0=0, select bank0
  4319  07C6  1303               	bcf	3,6	;RP1=0, select bank0
  4320  07C7  01D8               	clrf	_saque
  4321  07C8  0AD8               	incf	_saque,f
  4322  07C9  0008               	return
  4323  07CA                     __end_of_Juego:	
  4324                           
  4325                           	psect	text4
  4326  1128                     __ptext4:	
  4327 ;; *************** function ___lbtoft *****************
  4328 ;; Defined at:
  4329 ;;		line 27 in file "C:\Program Files (x86)\Microchip\xc8\v1.45\sources\common\lbtoft.c"
  4330 ;; Parameters:    Size  Location     Type
  4331 ;;  c               1    wreg     unsigned char 
  4332 ;; Auto vars:     Size  Location     Type
  4333 ;;  c               1   27[BANK0 ] unsigned char 
  4334 ;; Return value:  Size  Location     Type
  4335 ;;                  3   20[BANK0 ] float 
  4336 ;; Registers used:
  4337 ;;		wreg, status,2, status,0, pclath, cstack
  4338 ;; Tracked objects:
  4339 ;;		On entry : 0/0
  4340 ;;		On exit  : 0/0
  4341 ;;		Unchanged: 0/0
  4342 ;; Data sizes:     COMMON   BANK0   BANK1   BANK3   BANK2
  4343 ;;      Params:         0       3       0       0       0
  4344 ;;      Locals:         0       1       0       0       0
  4345 ;;      Temps:          0       4       0       0       0
  4346 ;;      Totals:         0       8       0       0       0
  4347 ;;Total ram usage:        8 bytes
  4348 ;; Hardware stack levels used:    1
  4349 ;; Hardware stack levels required when called:    4
  4350 ;; This function calls:
  4351 ;;		___ftpack
  4352 ;; This function is called by:
  4353 ;;		_Juego
  4354 ;; This function uses a non-reentrant model
  4355 ;;
  4356                           
  4357                           
  4358                           ;psect for function ___lbtoft
  4359  1128                     ___lbtoft:	
  4360                           
  4361                           ;incstack = 0
  4362                           ; Regs used in ___lbtoft: [wreg+status,2+status,0+pclath+cstack]
  4363                           ;___lbtoft@c stored from wreg
  4364  1128  1283               	bcf	3,5	;RP0=0, select bank0
  4365  1129  1303               	bcf	3,6	;RP1=0, select bank0
  4366  112A  00BB               	movwf	___lbtoft@c
  4367  112B  083B               	movf	___lbtoft@c,w
  4368  112C  00B7               	movwf	??___lbtoft
  4369  112D  01B8               	clrf	??___lbtoft+1
  4370  112E  01B9               	clrf	??___lbtoft+2
  4371  112F  0837               	movf	??___lbtoft,w
  4372  1130  00AC               	movwf	___ftpack@arg
  4373  1131  0838               	movf	??___lbtoft+1,w
  4374  1132  00AD               	movwf	___ftpack@arg+1
  4375  1133  0839               	movf	??___lbtoft+2,w
  4376  1134  00AE               	movwf	___ftpack@arg+2
  4377  1135  308E               	movlw	142
  4378  1136  00BA               	movwf	??___lbtoft+3
  4379  1137  083A               	movf	??___lbtoft+3,w
  4380  1138  00AF               	movwf	___ftpack@exp
  4381  1139  01B0               	clrf	___ftpack@sign
  4382  113A  160A  118A  22F8   	fcall	___ftpack
  4383  113D  1283               	bcf	3,5	;RP0=0, select bank0
  4384  113E  1303               	bcf	3,6	;RP1=0, select bank0
  4385  113F  082C               	movf	?___ftpack,w
  4386  1140  00B4               	movwf	?___lbtoft
  4387  1141  082D               	movf	?___ftpack+1,w
  4388  1142  00B5               	movwf	?___lbtoft+1
  4389  1143  082E               	movf	?___ftpack+2,w
  4390  1144  00B6               	movwf	?___lbtoft+2
  4391  1145  0008               	return
  4392  1146                     __end_of___lbtoft:	
  4393                           
  4394                           	psect	text5
  4395  1486                     __ptext5:	
  4396 ;; *************** function ___fttol *****************
  4397 ;; Defined at:
  4398 ;;		line 44 in file "C:\Program Files (x86)\Microchip\xc8\v1.45\sources\common\fttol.c"
  4399 ;; Parameters:    Size  Location     Type
  4400 ;;  f1              3   44[BANK0 ] float 
  4401 ;; Auto vars:     Size  Location     Type
  4402 ;;  lval            4    5[BANK1 ] unsigned long 
  4403 ;;  exp1            1    9[BANK1 ] unsigned char 
  4404 ;;  sign1           1    4[BANK1 ] unsigned char 
  4405 ;; Return value:  Size  Location     Type
  4406 ;;                  4   44[BANK0 ] long 
  4407 ;; Registers used:
  4408 ;;		wreg, status,2, status,0
  4409 ;; Tracked objects:
  4410 ;;		On entry : 0/0
  4411 ;;		On exit  : 0/0
  4412 ;;		Unchanged: 0/0
  4413 ;; Data sizes:     COMMON   BANK0   BANK1   BANK3   BANK2
  4414 ;;      Params:         0       4       0       0       0
  4415 ;;      Locals:         0       0       6       0       0
  4416 ;;      Temps:          0       0       4       0       0
  4417 ;;      Totals:         0       4      10       0       0
  4418 ;;Total ram usage:       14 bytes
  4419 ;; Hardware stack levels used:    1
  4420 ;; Hardware stack levels required when called:    3
  4421 ;; This function calls:
  4422 ;;		Nothing
  4423 ;; This function is called by:
  4424 ;;		_Juego
  4425 ;; This function uses a non-reentrant model
  4426 ;;
  4427                           
  4428                           
  4429                           ;psect for function ___fttol
  4430  1486                     ___fttol:	
  4431                           
  4432                           ;incstack = 0
  4433                           ; Regs used in ___fttol: [wreg+status,2+status,0]
  4434  1486  1283               	bcf	3,5	;RP0=0, select bank0
  4435  1487  1303               	bcf	3,6	;RP1=0, select bank0
  4436  1488  084C               	movf	___fttol@f1,w
  4437  1489  1683               	bsf	3,5	;RP0=1, select bank1
  4438  148A  1303               	bcf	3,6	;RP1=0, select bank1
  4439  148B  00D8               	movwf	??___fttol^(0+128)
  4440  148C  1283               	bcf	3,5	;RP0=0, select bank0
  4441  148D  1303               	bcf	3,6	;RP1=0, select bank0
  4442  148E  084D               	movf	___fttol@f1+1,w
  4443  148F  1683               	bsf	3,5	;RP0=1, select bank1
  4444  1490  1303               	bcf	3,6	;RP1=0, select bank1
  4445  1491  00D9               	movwf	(??___fttol^(0+128)+1)
  4446  1492  1283               	bcf	3,5	;RP0=0, select bank0
  4447  1493  1303               	bcf	3,6	;RP1=0, select bank0
  4448  1494  084E               	movf	___fttol@f1+2,w
  4449  1495  1683               	bsf	3,5	;RP0=1, select bank1
  4450  1496  1303               	bcf	3,6	;RP1=0, select bank1
  4451  1497  00DA               	movwf	(??___fttol^(0+128)+2)
  4452  1498  1003               	clrc
  4453  1499  0D59               	rlf	(??___fttol^(0+128)+1),w
  4454  149A  0D5A               	rlf	(??___fttol^(0+128)+2),w
  4455  149B  00DB               	movwf	(??___fttol+3)^(0+128)
  4456  149C  085B               	movf	(??___fttol+3)^(0+128),w
  4457  149D  00E1               	movwf	___fttol@exp1^(0+128)
  4458  149E  0861               	movf	___fttol@exp1^(0+128),w
  4459  149F  1D03               	btfss	3,2
  4460  14A0  2CAC               	goto	l3410
  4461  14A1  3000               	movlw	0
  4462  14A2  1283               	bcf	3,5	;RP0=0, select bank0
  4463  14A3  1303               	bcf	3,6	;RP1=0, select bank0
  4464  14A4  00CF               	movwf	?___fttol+3
  4465  14A5  3000               	movlw	0
  4466  14A6  00CE               	movwf	?___fttol+2
  4467  14A7  3000               	movlw	0
  4468  14A8  00CD               	movwf	?___fttol+1
  4469  14A9  3000               	movlw	0
  4470  14AA  00CC               	movwf	?___fttol
  4471  14AB  0008               	return
  4472  14AC                     l3410:	
  4473  14AC  1283               	bcf	3,5	;RP0=0, select bank0
  4474  14AD  084C               	movf	___fttol@f1,w
  4475  14AE  1683               	bsf	3,5	;RP0=1, select bank1
  4476  14AF  1303               	bcf	3,6	;RP1=0, select bank1
  4477  14B0  00D8               	movwf	??___fttol^(0+128)
  4478  14B1  1283               	bcf	3,5	;RP0=0, select bank0
  4479  14B2  1303               	bcf	3,6	;RP1=0, select bank0
  4480  14B3  084D               	movf	___fttol@f1+1,w
  4481  14B4  1683               	bsf	3,5	;RP0=1, select bank1
  4482  14B5  1303               	bcf	3,6	;RP1=0, select bank1
  4483  14B6  00D9               	movwf	(??___fttol^(0+128)+1)
  4484  14B7  1283               	bcf	3,5	;RP0=0, select bank0
  4485  14B8  1303               	bcf	3,6	;RP1=0, select bank0
  4486  14B9  084E               	movf	___fttol@f1+2,w
  4487  14BA  1683               	bsf	3,5	;RP0=1, select bank1
  4488  14BB  1303               	bcf	3,6	;RP1=0, select bank1
  4489  14BC  00DA               	movwf	(??___fttol^(0+128)+2)
  4490  14BD  3017               	movlw	23
  4491  14BE                     u3545:	
  4492  14BE  1003               	clrc
  4493  14BF  0CDA               	rrf	(??___fttol^(0+128)+2),f
  4494  14C0  0CD9               	rrf	(??___fttol^(0+128)+1),f
  4495  14C1  0CD8               	rrf	??___fttol^(0+128),f
  4496  14C2  3EFF               	addlw	-1
  4497  14C3  1D03               	skipz
  4498  14C4  2CBE               	goto	u3545
  4499  14C5  0858               	movf	??___fttol^(0+128),w
  4500  14C6  00DB               	movwf	(??___fttol+3)^(0+128)
  4501  14C7  085B               	movf	(??___fttol+3)^(0+128),w
  4502  14C8  00DC               	movwf	___fttol@sign1^(0+128)
  4503  14C9  1283               	bcf	3,5	;RP0=0, select bank0
  4504  14CA  1303               	bcf	3,6	;RP1=0, select bank0
  4505  14CB  17CD               	bsf	___fttol@f1+1,7
  4506  14CC  30FF               	movlw	255
  4507  14CD  05CC               	andwf	___fttol@f1,f
  4508  14CE  30FF               	movlw	255
  4509  14CF  05CD               	andwf	___fttol@f1+1,f
  4510  14D0  3000               	movlw	0
  4511  14D1  05CE               	andwf	___fttol@f1+2,f
  4512  14D2  084C               	movf	___fttol@f1,w
  4513  14D3  1683               	bsf	3,5	;RP0=1, select bank1
  4514  14D4  1303               	bcf	3,6	;RP1=0, select bank1
  4515  14D5  00DD               	movwf	___fttol@lval^(0+128)
  4516  14D6  1283               	bcf	3,5	;RP0=0, select bank0
  4517  14D7  1303               	bcf	3,6	;RP1=0, select bank0
  4518  14D8  084D               	movf	___fttol@f1+1,w
  4519  14D9  1683               	bsf	3,5	;RP0=1, select bank1
  4520  14DA  1303               	bcf	3,6	;RP1=0, select bank1
  4521  14DB  00DE               	movwf	(___fttol@lval^(0+128)+1)
  4522  14DC  1283               	bcf	3,5	;RP0=0, select bank0
  4523  14DD  1303               	bcf	3,6	;RP1=0, select bank0
  4524  14DE  084E               	movf	___fttol@f1+2,w
  4525  14DF  1683               	bsf	3,5	;RP0=1, select bank1
  4526  14E0  1303               	bcf	3,6	;RP1=0, select bank1
  4527  14E1  00DF               	movwf	(___fttol@lval^(0+128)+2)
  4528  14E2  01E0               	clrf	(___fttol@lval^(0+128)+3)
  4529  14E3  308E               	movlw	142
  4530  14E4  02E1               	subwf	___fttol@exp1^(0+128),f
  4531  14E5  1FE1               	btfss	___fttol@exp1^(0+128),7
  4532  14E6  2D09               	goto	l3430
  4533  14E7  0861               	movf	___fttol@exp1^(0+128),w
  4534  14E8  3A80               	xorlw	128
  4535  14E9  3E8F               	addlw	143
  4536  14EA  1803               	skipnc
  4537  14EB  2CF7               	goto	l3428
  4538  14EC  3000               	movlw	0
  4539  14ED  1283               	bcf	3,5	;RP0=0, select bank0
  4540  14EE  1303               	bcf	3,6	;RP1=0, select bank0
  4541  14EF  00CF               	movwf	?___fttol+3
  4542  14F0  3000               	movlw	0
  4543  14F1  00CE               	movwf	?___fttol+2
  4544  14F2  3000               	movlw	0
  4545  14F3  00CD               	movwf	?___fttol+1
  4546  14F4  3000               	movlw	0
  4547  14F5  00CC               	movwf	?___fttol
  4548  14F6  0008               	return
  4549  14F7                     l3428:	
  4550  14F7  3001               	movlw	1
  4551  14F8                     u3575:	
  4552  14F8  1003               	clrc
  4553  14F9  1683               	bsf	3,5	;RP0=1, select bank1
  4554  14FA  1303               	bcf	3,6	;RP1=0, select bank1
  4555  14FB  0CE0               	rrf	(___fttol@lval+3)^(0+128),f
  4556  14FC  0CDF               	rrf	(___fttol@lval+2)^(0+128),f
  4557  14FD  0CDE               	rrf	(___fttol@lval+1)^(0+128),f
  4558  14FE  0CDD               	rrf	___fttol@lval^(0+128),f
  4559  14FF  3EFF               	addlw	-1
  4560  1500  1D03               	skipz
  4561  1501  2CF8               	goto	u3575
  4562  1502  3001               	movlw	1
  4563  1503  00D8               	movwf	??___fttol^(0+128)
  4564  1504  0858               	movf	??___fttol^(0+128),w
  4565  1505  07E1               	addwf	___fttol@exp1^(0+128),f
  4566  1506  1903               	btfsc	3,2
  4567  1507  2D2A               	goto	l3438
  4568  1508  2CF7               	goto	l3428
  4569  1509                     l3430:	
  4570  1509  3018               	movlw	24
  4571  150A  0261               	subwf	___fttol@exp1^(0+128),w
  4572  150B  1C03               	skipc
  4573  150C  2D25               	goto	l798
  4574  150D  3000               	movlw	0
  4575  150E  1283               	bcf	3,5	;RP0=0, select bank0
  4576  150F  1303               	bcf	3,6	;RP1=0, select bank0
  4577  1510  00CF               	movwf	?___fttol+3
  4578  1511  3000               	movlw	0
  4579  1512  00CE               	movwf	?___fttol+2
  4580  1513  3000               	movlw	0
  4581  1514  00CD               	movwf	?___fttol+1
  4582  1515  3000               	movlw	0
  4583  1516  00CC               	movwf	?___fttol
  4584  1517  0008               	return
  4585  1518                     l3436:	
  4586  1518  3001               	movlw	1
  4587  1519  1683               	bsf	3,5	;RP0=1, select bank1
  4588  151A  1303               	bcf	3,6	;RP1=0, select bank1
  4589  151B  00D8               	movwf	??___fttol^(0+128)
  4590  151C                     u3605:	
  4591  151C  1003               	clrc
  4592  151D  0DDD               	rlf	___fttol@lval^(0+128),f
  4593  151E  0DDE               	rlf	(___fttol@lval+1)^(0+128),f
  4594  151F  0DDF               	rlf	(___fttol@lval+2)^(0+128),f
  4595  1520  0DE0               	rlf	(___fttol@lval+3)^(0+128),f
  4596  1521  0BD8               	decfsz	??___fttol^(0+128),f
  4597  1522  2D1C               	goto	u3605
  4598  1523  3001               	movlw	1
  4599  1524  02E1               	subwf	___fttol@exp1^(0+128),f
  4600  1525                     l798:	
  4601  1525  1683               	bsf	3,5	;RP0=1, select bank1
  4602  1526  1303               	bcf	3,6	;RP1=0, select bank1
  4603  1527  0861               	movf	___fttol@exp1^(0+128),w
  4604  1528  1D03               	btfss	3,2
  4605  1529  2D18               	goto	l3436
  4606  152A                     l3438:	
  4607  152A  085C               	movf	___fttol@sign1^(0+128),w
  4608  152B  1903               	btfsc	3,2
  4609  152C  2D38               	goto	l3442
  4610  152D  09DD               	comf	___fttol@lval^(0+128),f
  4611  152E  09DE               	comf	(___fttol@lval+1)^(0+128),f
  4612  152F  09DF               	comf	(___fttol@lval+2)^(0+128),f
  4613  1530  09E0               	comf	(___fttol@lval+3)^(0+128),f
  4614  1531  0ADD               	incf	___fttol@lval^(0+128),f
  4615  1532  1903               	skipnz
  4616  1533  0ADE               	incf	(___fttol@lval+1)^(0+128),f
  4617  1534  1903               	skipnz
  4618  1535  0ADF               	incf	(___fttol@lval+2)^(0+128),f
  4619  1536  1903               	skipnz
  4620  1537  0AE0               	incf	(___fttol@lval+3)^(0+128),f
  4621  1538                     l3442:	
  4622  1538  0860               	movf	(___fttol@lval+3)^(0+128),w
  4623  1539  1283               	bcf	3,5	;RP0=0, select bank0
  4624  153A  1303               	bcf	3,6	;RP1=0, select bank0
  4625  153B  00CF               	movwf	?___fttol+3
  4626  153C  1683               	bsf	3,5	;RP0=1, select bank1
  4627  153D  1303               	bcf	3,6	;RP1=0, select bank1
  4628  153E  085F               	movf	(___fttol@lval+2)^(0+128),w
  4629  153F  1283               	bcf	3,5	;RP0=0, select bank0
  4630  1540  1303               	bcf	3,6	;RP1=0, select bank0
  4631  1541  00CE               	movwf	?___fttol+2
  4632  1542  1683               	bsf	3,5	;RP0=1, select bank1
  4633  1543  1303               	bcf	3,6	;RP1=0, select bank1
  4634  1544  085E               	movf	(___fttol@lval+1)^(0+128),w
  4635  1545  1283               	bcf	3,5	;RP0=0, select bank0
  4636  1546  1303               	bcf	3,6	;RP1=0, select bank0
  4637  1547  00CD               	movwf	?___fttol+1
  4638  1548  1683               	bsf	3,5	;RP0=1, select bank1
  4639  1549  1303               	bcf	3,6	;RP1=0, select bank1
  4640  154A  085D               	movf	___fttol@lval^(0+128),w
  4641  154B  1283               	bcf	3,5	;RP0=0, select bank0
  4642  154C  1303               	bcf	3,6	;RP1=0, select bank0
  4643  154D  00CC               	movwf	?___fttol
  4644  154E  0008               	return
  4645  154F                     __end_of___fttol:	
  4646                           
  4647                           	psect	text6
  4648  154F                     __ptext6:	
  4649 ;; *************** function ___ftmul *****************
  4650 ;; Defined at:
  4651 ;;		line 62 in file "C:\Program Files (x86)\Microchip\xc8\v1.45\sources\common\ftmul.c"
  4652 ;; Parameters:    Size  Location     Type
  4653 ;;  f1              3   28[BANK0 ] float 
  4654 ;;  f2              3   31[BANK0 ] float 
  4655 ;; Auto vars:     Size  Location     Type
  4656 ;;  f3_as_produc    3   39[BANK0 ] unsigned um
  4657 ;;  sign            1   43[BANK0 ] unsigned char 
  4658 ;;  cntr            1   42[BANK0 ] unsigned char 
  4659 ;;  exp             1   38[BANK0 ] unsigned char 
  4660 ;; Return value:  Size  Location     Type
  4661 ;;                  3   28[BANK0 ] float 
  4662 ;; Registers used:
  4663 ;;		wreg, status,2, status,0, pclath, cstack
  4664 ;; Tracked objects:
  4665 ;;		On entry : 0/0
  4666 ;;		On exit  : 0/0
  4667 ;;		Unchanged: 0/0
  4668 ;; Data sizes:     COMMON   BANK0   BANK1   BANK3   BANK2
  4669 ;;      Params:         0       6       0       0       0
  4670 ;;      Locals:         0       6       0       0       0
  4671 ;;      Temps:          0       4       0       0       0
  4672 ;;      Totals:         0      16       0       0       0
  4673 ;;Total ram usage:       16 bytes
  4674 ;; Hardware stack levels used:    1
  4675 ;; Hardware stack levels required when called:    4
  4676 ;; This function calls:
  4677 ;;		___ftpack
  4678 ;; This function is called by:
  4679 ;;		_Juego
  4680 ;; This function uses a non-reentrant model
  4681 ;;
  4682                           
  4683                           
  4684                           ;psect for function ___ftmul
  4685  154F                     ___ftmul:	
  4686                           
  4687                           ;incstack = 0
  4688                           ; Regs used in ___ftmul: [wreg+status,2+status,0+pclath+cstack]
  4689  154F  1283               	bcf	3,5	;RP0=0, select bank0
  4690  1550  1303               	bcf	3,6	;RP1=0, select bank0
  4691  1551  083C               	movf	___ftmul@f1,w
  4692  1552  00C2               	movwf	??___ftmul
  4693  1553  083D               	movf	___ftmul@f1+1,w
  4694  1554  00C3               	movwf	??___ftmul+1
  4695  1555  083E               	movf	___ftmul@f1+2,w
  4696  1556  00C4               	movwf	??___ftmul+2
  4697  1557  1003               	clrc
  4698  1558  0D43               	rlf	??___ftmul+1,w
  4699  1559  0D44               	rlf	??___ftmul+2,w
  4700  155A  00C5               	movwf	??___ftmul+3
  4701  155B  0845               	movf	??___ftmul+3,w
  4702  155C  00C6               	movwf	___ftmul@exp
  4703  155D  0846               	movf	___ftmul@exp,w
  4704  155E  1D03               	btfss	3,2
  4705  155F  2D67               	goto	l2500
  4706  1560  3000               	movlw	0
  4707  1561  00BC               	movwf	?___ftmul
  4708  1562  3000               	movlw	0
  4709  1563  00BD               	movwf	?___ftmul+1
  4710  1564  3000               	movlw	0
  4711  1565  00BE               	movwf	?___ftmul+2
  4712  1566  0008               	return
  4713  1567                     l2500:	
  4714  1567  083F               	movf	___ftmul@f2,w
  4715  1568  00C2               	movwf	??___ftmul
  4716  1569  0840               	movf	___ftmul@f2+1,w
  4717  156A  00C3               	movwf	??___ftmul+1
  4718  156B  0841               	movf	___ftmul@f2+2,w
  4719  156C  00C4               	movwf	??___ftmul+2
  4720  156D  1003               	clrc
  4721  156E  0D43               	rlf	??___ftmul+1,w
  4722  156F  0D44               	rlf	??___ftmul+2,w
  4723  1570  00C5               	movwf	??___ftmul+3
  4724  1571  0845               	movf	??___ftmul+3,w
  4725  1572  00CB               	movwf	___ftmul@sign
  4726  1573  084B               	movf	___ftmul@sign,w
  4727  1574  1D03               	btfss	3,2
  4728  1575  2D7D               	goto	l2506
  4729  1576  3000               	movlw	0
  4730  1577  00BC               	movwf	?___ftmul
  4731  1578  3000               	movlw	0
  4732  1579  00BD               	movwf	?___ftmul+1
  4733  157A  3000               	movlw	0
  4734  157B  00BE               	movwf	?___ftmul+2
  4735  157C  0008               	return
  4736  157D                     l2506:	
  4737  157D  084B               	movf	___ftmul@sign,w
  4738  157E  3E7B               	addlw	123
  4739  157F  00C2               	movwf	??___ftmul
  4740  1580  0842               	movf	??___ftmul,w
  4741  1581  07C6               	addwf	___ftmul@exp,f
  4742  1582  083C               	movf	___ftmul@f1,w
  4743  1583  00C2               	movwf	??___ftmul
  4744  1584  083D               	movf	___ftmul@f1+1,w
  4745  1585  00C3               	movwf	??___ftmul+1
  4746  1586  083E               	movf	___ftmul@f1+2,w
  4747  1587  00C4               	movwf	??___ftmul+2
  4748  1588  3010               	movlw	16
  4749  1589                     u2205:	
  4750  1589  1003               	clrc
  4751  158A  0CC4               	rrf	??___ftmul+2,f
  4752  158B  0CC3               	rrf	??___ftmul+1,f
  4753  158C  0CC2               	rrf	??___ftmul,f
  4754  158D  3EFF               	addlw	-1
  4755  158E  1D03               	skipz
  4756  158F  2D89               	goto	u2205
  4757  1590  0842               	movf	??___ftmul,w
  4758  1591  00C5               	movwf	??___ftmul+3
  4759  1592  0845               	movf	??___ftmul+3,w
  4760  1593  00CB               	movwf	___ftmul@sign
  4761  1594  083F               	movf	___ftmul@f2,w
  4762  1595  00C2               	movwf	??___ftmul
  4763  1596  0840               	movf	___ftmul@f2+1,w
  4764  1597  00C3               	movwf	??___ftmul+1
  4765  1598  0841               	movf	___ftmul@f2+2,w
  4766  1599  00C4               	movwf	??___ftmul+2
  4767  159A  3010               	movlw	16
  4768  159B                     u2215:	
  4769  159B  1003               	clrc
  4770  159C  0CC4               	rrf	??___ftmul+2,f
  4771  159D  0CC3               	rrf	??___ftmul+1,f
  4772  159E  0CC2               	rrf	??___ftmul,f
  4773  159F  3EFF               	addlw	-1
  4774  15A0  1D03               	skipz
  4775  15A1  2D9B               	goto	u2215
  4776  15A2  0842               	movf	??___ftmul,w
  4777  15A3  00C5               	movwf	??___ftmul+3
  4778  15A4  0845               	movf	??___ftmul+3,w
  4779  15A5  06CB               	xorwf	___ftmul@sign,f
  4780  15A6  3080               	movlw	128
  4781  15A7  00C2               	movwf	??___ftmul
  4782  15A8  0842               	movf	??___ftmul,w
  4783  15A9  05CB               	andwf	___ftmul@sign,f
  4784  15AA  17BD               	bsf	___ftmul@f1+1,7
  4785  15AB  17C0               	bsf	___ftmul@f2+1,7
  4786  15AC  30FF               	movlw	255
  4787  15AD  05BF               	andwf	___ftmul@f2,f
  4788  15AE  30FF               	movlw	255
  4789  15AF  05C0               	andwf	___ftmul@f2+1,f
  4790  15B0  3000               	movlw	0
  4791  15B1  05C1               	andwf	___ftmul@f2+2,f
  4792  15B2  3000               	movlw	0
  4793  15B3  00C7               	movwf	___ftmul@f3_as_product
  4794  15B4  3000               	movlw	0
  4795  15B5  00C8               	movwf	___ftmul@f3_as_product+1
  4796  15B6  3000               	movlw	0
  4797  15B7  00C9               	movwf	___ftmul@f3_as_product+2
  4798  15B8  3007               	movlw	7
  4799  15B9  00C2               	movwf	??___ftmul
  4800  15BA  0842               	movf	??___ftmul,w
  4801  15BB  00CA               	movwf	___ftmul@cntr
  4802  15BC                     l2518:	
  4803  15BC  1C3C               	btfss	___ftmul@f1,0
  4804  15BD  2DCC               	goto	l2522
  4805  15BE  083F               	movf	___ftmul@f2,w
  4806  15BF  07C7               	addwf	___ftmul@f3_as_product,f
  4807  15C0  0840               	movf	___ftmul@f2+1,w
  4808  15C1  1103               	clrz
  4809  15C2  1803               	skipnc
  4810  15C3  0A40               	incf	___ftmul@f2+1,w
  4811  15C4  1D03               	btfss	3,2
  4812  15C5  07C8               	addwf	___ftmul@f3_as_product+1,f
  4813  15C6  0841               	movf	___ftmul@f2+2,w
  4814  15C7  1103               	clrz
  4815  15C8  1803               	skipnc
  4816  15C9  0A41               	incf	___ftmul@f2+2,w
  4817  15CA  1D03               	btfss	3,2
  4818  15CB  07C9               	addwf	___ftmul@f3_as_product+2,f
  4819  15CC                     l2522:	
  4820  15CC  3001               	movlw	1
  4821  15CD                     u2245:	
  4822  15CD  1003               	clrc
  4823  15CE  0CBE               	rrf	___ftmul@f1+2,f
  4824  15CF  0CBD               	rrf	___ftmul@f1+1,f
  4825  15D0  0CBC               	rrf	___ftmul@f1,f
  4826  15D1  3EFF               	addlw	-1
  4827  15D2  1D03               	skipz
  4828  15D3  2DCD               	goto	u2245
  4829  15D4  3001               	movlw	1
  4830  15D5                     u2255:	
  4831  15D5  1003               	clrc
  4832  15D6  0DBF               	rlf	___ftmul@f2,f
  4833  15D7  0DC0               	rlf	___ftmul@f2+1,f
  4834  15D8  0DC1               	rlf	___ftmul@f2+2,f
  4835  15D9  3EFF               	addlw	-1
  4836  15DA  1D03               	skipz
  4837  15DB  2DD5               	goto	u2255
  4838  15DC  3001               	movlw	1
  4839  15DD  02CA               	subwf	___ftmul@cntr,f
  4840  15DE  1D03               	btfss	3,2
  4841  15DF  2DBC               	goto	l2518
  4842  15E0  3009               	movlw	9
  4843  15E1  00C2               	movwf	??___ftmul
  4844  15E2  0842               	movf	??___ftmul,w
  4845  15E3  00CA               	movwf	___ftmul@cntr
  4846  15E4                     l2530:	
  4847  15E4  1C3C               	btfss	___ftmul@f1,0
  4848  15E5  2DF4               	goto	l2534
  4849  15E6  083F               	movf	___ftmul@f2,w
  4850  15E7  07C7               	addwf	___ftmul@f3_as_product,f
  4851  15E8  0840               	movf	___ftmul@f2+1,w
  4852  15E9  1103               	clrz
  4853  15EA  1803               	skipnc
  4854  15EB  0A40               	incf	___ftmul@f2+1,w
  4855  15EC  1D03               	btfss	3,2
  4856  15ED  07C8               	addwf	___ftmul@f3_as_product+1,f
  4857  15EE  0841               	movf	___ftmul@f2+2,w
  4858  15EF  1103               	clrz
  4859  15F0  1803               	skipnc
  4860  15F1  0A41               	incf	___ftmul@f2+2,w
  4861  15F2  1D03               	btfss	3,2
  4862  15F3  07C9               	addwf	___ftmul@f3_as_product+2,f
  4863  15F4                     l2534:	
  4864  15F4  3001               	movlw	1
  4865  15F5                     u2295:	
  4866  15F5  1003               	clrc
  4867  15F6  0CBE               	rrf	___ftmul@f1+2,f
  4868  15F7  0CBD               	rrf	___ftmul@f1+1,f
  4869  15F8  0CBC               	rrf	___ftmul@f1,f
  4870  15F9  3EFF               	addlw	-1
  4871  15FA  1D03               	skipz
  4872  15FB  2DF5               	goto	u2295
  4873  15FC  3001               	movlw	1
  4874  15FD                     u2305:	
  4875  15FD  1003               	clrc
  4876  15FE  0CC9               	rrf	___ftmul@f3_as_product+2,f
  4877  15FF  0CC8               	rrf	___ftmul@f3_as_product+1,f
  4878  1600  0CC7               	rrf	___ftmul@f3_as_product,f
  4879  1601  3EFF               	addlw	-1
  4880  1602  1D03               	skipz
  4881  1603  2DFD               	goto	u2305
  4882  1604  3001               	movlw	1
  4883  1605  02CA               	subwf	___ftmul@cntr,f
  4884  1606  1D03               	btfss	3,2
  4885  1607  2DE4               	goto	l2530
  4886  1608  0847               	movf	___ftmul@f3_as_product,w
  4887  1609  00AC               	movwf	___ftpack@arg
  4888  160A  0848               	movf	___ftmul@f3_as_product+1,w
  4889  160B  00AD               	movwf	___ftpack@arg+1
  4890  160C  0849               	movf	___ftmul@f3_as_product+2,w
  4891  160D  00AE               	movwf	___ftpack@arg+2
  4892  160E  0846               	movf	___ftmul@exp,w
  4893  160F  00C2               	movwf	??___ftmul
  4894  1610  0842               	movf	??___ftmul,w
  4895  1611  00AF               	movwf	___ftpack@exp
  4896  1612  084B               	movf	___ftmul@sign,w
  4897  1613  00C3               	movwf	??___ftmul+1
  4898  1614  0843               	movf	??___ftmul+1,w
  4899  1615  00B0               	movwf	___ftpack@sign
  4900  1616  160A  118A  22F8   	fcall	___ftpack
  4901  1619  1283               	bcf	3,5	;RP0=0, select bank0
  4902  161A  1303               	bcf	3,6	;RP1=0, select bank0
  4903  161B  082C               	movf	?___ftpack,w
  4904  161C  00BC               	movwf	?___ftmul
  4905  161D  082D               	movf	?___ftpack+1,w
  4906  161E  00BD               	movwf	?___ftmul+1
  4907  161F  082E               	movf	?___ftpack+2,w
  4908  1620  00BE               	movwf	?___ftmul+2
  4909  1621  0008               	return
  4910  1622                     __end_of___ftmul:	
  4911                           
  4912                           	psect	text7
  4913  12F8                     __ptext7:	
  4914 ;; *************** function ___ftpack *****************
  4915 ;; Defined at:
  4916 ;;		line 62 in file "C:\Program Files (x86)\Microchip\xc8\v1.45\sources\common\float.c"
  4917 ;; Parameters:    Size  Location     Type
  4918 ;;  arg             3   12[BANK0 ] unsigned um
  4919 ;;  exp             1   15[BANK0 ] unsigned char 
  4920 ;;  sign            1   16[BANK0 ] unsigned char 
  4921 ;; Auto vars:     Size  Location     Type
  4922 ;;		None
  4923 ;; Return value:  Size  Location     Type
  4924 ;;                  3   12[BANK0 ] float 
  4925 ;; Registers used:
  4926 ;;		wreg, status,2, status,0
  4927 ;; Tracked objects:
  4928 ;;		On entry : 0/0
  4929 ;;		On exit  : 0/0
  4930 ;;		Unchanged: 0/0
  4931 ;; Data sizes:     COMMON   BANK0   BANK1   BANK3   BANK2
  4932 ;;      Params:         0       5       0       0       0
  4933 ;;      Locals:         0       0       0       0       0
  4934 ;;      Temps:          0       3       0       0       0
  4935 ;;      Totals:         0       8       0       0       0
  4936 ;;Total ram usage:        8 bytes
  4937 ;; Hardware stack levels used:    1
  4938 ;; Hardware stack levels required when called:    3
  4939 ;; This function calls:
  4940 ;;		Nothing
  4941 ;; This function is called by:
  4942 ;;		___ftmul
  4943 ;;		___lbtoft
  4944 ;; This function uses a non-reentrant model
  4945 ;;
  4946                           
  4947                           
  4948                           ;psect for function ___ftpack
  4949  12F8                     ___ftpack:	
  4950                           
  4951                           ;incstack = 0
  4952                           ; Regs used in ___ftpack: [wreg+status,2+status,0]
  4953  12F8  1283               	bcf	3,5	;RP0=0, select bank0
  4954  12F9  1303               	bcf	3,6	;RP1=0, select bank0
  4955  12FA  082F               	movf	___ftpack@exp,w
  4956  12FB  1903               	btfsc	3,2
  4957  12FC  2B02               	goto	l2370
  4958  12FD  082E               	movf	___ftpack@arg+2,w
  4959  12FE  042D               	iorwf	___ftpack@arg+1,w
  4960  12FF  042C               	iorwf	___ftpack@arg,w
  4961  1300  1D03               	skipz
  4962  1301  2B15               	goto	l2376
  4963  1302                     l2370:	
  4964  1302  3000               	movlw	0
  4965  1303  00AC               	movwf	?___ftpack
  4966  1304  3000               	movlw	0
  4967  1305  00AD               	movwf	?___ftpack+1
  4968  1306  3000               	movlw	0
  4969  1307  00AE               	movwf	?___ftpack+2
  4970  1308  0008               	return
  4971  1309                     l2374:	
  4972  1309  3001               	movlw	1
  4973  130A  00B1               	movwf	??___ftpack
  4974  130B  0831               	movf	??___ftpack,w
  4975  130C  07AF               	addwf	___ftpack@exp,f
  4976  130D  3001               	movlw	1
  4977  130E                     u2045:	
  4978  130E  1003               	clrc
  4979  130F  0CAE               	rrf	___ftpack@arg+2,f
  4980  1310  0CAD               	rrf	___ftpack@arg+1,f
  4981  1311  0CAC               	rrf	___ftpack@arg,f
  4982  1312  3EFF               	addlw	-1
  4983  1313  1D03               	skipz
  4984  1314  2B0E               	goto	u2045
  4985  1315                     l2376:	
  4986  1315  30FE               	movlw	254
  4987  1316  052E               	andwf	___ftpack@arg+2,w
  4988  1317  1903               	btfsc	3,2
  4989  1318  2B30               	goto	l707
  4990  1319  2B09               	goto	l2374
  4991  131A                     l2378:	
  4992  131A  3001               	movlw	1
  4993  131B  00B1               	movwf	??___ftpack
  4994  131C  0831               	movf	??___ftpack,w
  4995  131D  07AF               	addwf	___ftpack@exp,f
  4996  131E  3001               	movlw	1
  4997  131F  07AC               	addwf	___ftpack@arg,f
  4998  1320  3000               	movlw	0
  4999  1321  1803               	skipnc
  5000  1322  3001               	movlw	1
  5001  1323  07AD               	addwf	___ftpack@arg+1,f
  5002  1324  3000               	movlw	0
  5003  1325  1803               	skipnc
  5004  1326  3001               	movlw	1
  5005  1327  07AE               	addwf	___ftpack@arg+2,f
  5006  1328  3001               	movlw	1
  5007  1329                     u2065:	
  5008  1329  1003               	clrc
  5009  132A  0CAE               	rrf	___ftpack@arg+2,f
  5010  132B  0CAD               	rrf	___ftpack@arg+1,f
  5011  132C  0CAC               	rrf	___ftpack@arg,f
  5012  132D  3EFF               	addlw	-1
  5013  132E  1D03               	skipz
  5014  132F  2B29               	goto	u2065
  5015  1330                     l707:	
  5016  1330  30FF               	movlw	255
  5017  1331  052E               	andwf	___ftpack@arg+2,w
  5018  1332  1903               	btfsc	3,2
  5019  1333  2B3F               	goto	l2386
  5020  1334  2B1A               	goto	l2378
  5021  1335                     l2384:	
  5022  1335  3001               	movlw	1
  5023  1336  02AF               	subwf	___ftpack@exp,f
  5024  1337  3001               	movlw	1
  5025  1338                     u2085:	
  5026  1338  1003               	clrc
  5027  1339  0DAC               	rlf	___ftpack@arg,f
  5028  133A  0DAD               	rlf	___ftpack@arg+1,f
  5029  133B  0DAE               	rlf	___ftpack@arg+2,f
  5030  133C  3EFF               	addlw	-1
  5031  133D  1D03               	skipz
  5032  133E  2B38               	goto	u2085
  5033  133F                     l2386:	
  5034  133F  1BAD               	btfsc	___ftpack@arg+1,7
  5035  1340  2B45               	goto	l714
  5036  1341  3002               	movlw	2
  5037  1342  022F               	subwf	___ftpack@exp,w
  5038  1343  1803               	skipnc
  5039  1344  2B35               	goto	l2384
  5040  1345                     l714:	
  5041  1345  182F               	btfsc	___ftpack@exp,0
  5042  1346  2B4D               	goto	l715
  5043  1347  30FF               	movlw	255
  5044  1348  05AC               	andwf	___ftpack@arg,f
  5045  1349  307F               	movlw	127
  5046  134A  05AD               	andwf	___ftpack@arg+1,f
  5047  134B  30FF               	movlw	255
  5048  134C  05AE               	andwf	___ftpack@arg+2,f
  5049  134D                     l715:	
  5050  134D  1003               	clrc
  5051  134E  0CAF               	rrf	___ftpack@exp,f
  5052  134F  082F               	movf	___ftpack@exp,w
  5053  1350  00B1               	movwf	??___ftpack
  5054  1351  01B2               	clrf	??___ftpack+1
  5055  1352  01B3               	clrf	??___ftpack+2
  5056  1353  3010               	movlw	16
  5057  1354                     u2125:	
  5058  1354  1003               	clrc
  5059  1355  0DB1               	rlf	??___ftpack,f
  5060  1356  0DB2               	rlf	??___ftpack+1,f
  5061  1357  0DB3               	rlf	??___ftpack+2,f
  5062  1358  3EFF               	addlw	-1
  5063  1359  1D03               	skipz
  5064  135A  2B54               	goto	u2125
  5065  135B  0831               	movf	??___ftpack,w
  5066  135C  04AC               	iorwf	___ftpack@arg,f
  5067  135D  0832               	movf	??___ftpack+1,w
  5068  135E  04AD               	iorwf	___ftpack@arg+1,f
  5069  135F  0833               	movf	??___ftpack+2,w
  5070  1360  04AE               	iorwf	___ftpack@arg+2,f
  5071  1361  0830               	movf	___ftpack@sign,w
  5072  1362  1903               	btfsc	3,2
  5073  1363  0008               	return
  5074  1364  17AE               	bsf	___ftpack@arg+2,7
  5075  1365  0008               	return
  5076  1366                     __end_of___ftpack:	
  5077                           
  5078                           	psect	text8
  5079  13F0                     __ptext8:	
  5080 ;; *************** function _Saque *****************
  5081 ;; Defined at:
  5082 ;;		line 859 in file "Trayectoria.c"
  5083 ;; Parameters:    Size  Location     Type
  5084 ;;		None
  5085 ;; Auto vars:     Size  Location     Type
  5086 ;;		None
  5087 ;; Return value:  Size  Location     Type
  5088 ;;                  1    wreg      void 
  5089 ;; Registers used:
  5090 ;;		wreg, status,2, status,0, pclath, cstack
  5091 ;; Tracked objects:
  5092 ;;		On entry : 0/0
  5093 ;;		On exit  : 0/0
  5094 ;;		Unchanged: 0/0
  5095 ;; Data sizes:     COMMON   BANK0   BANK1   BANK3   BANK2
  5096 ;;      Params:         0       0       0       0       0
  5097 ;;      Locals:         0       0       0       0       0
  5098 ;;      Temps:          0       1       0       0       0
  5099 ;;      Totals:         0       1       0       0       0
  5100 ;;Total ram usage:        1 bytes
  5101 ;; Hardware stack levels used:    1
  5102 ;; Hardware stack levels required when called:    5
  5103 ;; This function calls:
  5104 ;;		_barras
  5105 ;;		_enviardato
  5106 ;;		_enviardato0
  5107 ;;		_enviardato2
  5108 ;; This function is called by:
  5109 ;;		_Juego
  5110 ;; This function uses a non-reentrant model
  5111 ;;
  5112                           
  5113                           
  5114                           ;psect for function _Saque
  5115  13F0                     _Saque:	
  5116                           
  5117                           ;Trayectoria.c: 861: ledbarra1=0x08;
  5118                           
  5119                           ;incstack = 0
  5120                           ; Regs used in _Saque: [wreg+status,2+status,0+pclath+cstack]
  5121  13F0  3008               	movlw	8
  5122  13F1  1283               	bcf	3,5	;RP0=0, select bank0
  5123  13F2  1303               	bcf	3,6	;RP1=0, select bank0
  5124  13F3  00BE               	movwf	??_Saque
  5125  13F4  083E               	movf	??_Saque,w
  5126  13F5  00DD               	movwf	_ledbarra1
  5127                           
  5128                           ;Trayectoria.c: 862: ledbarra2=0x08;
  5129  13F6  3008               	movlw	8
  5130  13F7  00BE               	movwf	??_Saque
  5131  13F8  083E               	movf	??_Saque,w
  5132  13F9  00FD               	movwf	_ledbarra2
  5133                           
  5134                           ;Trayectoria.c: 863: enviardato0(0x01,0);
  5135  13FA  01AC               	clrf	enviardato0@dato
  5136  13FB  3001               	movlw	1
  5137  13FC  120A  118A  27CA  160A  118A  	fcall	_enviardato0
  5138                           
  5139                           ;Trayectoria.c: 864: enviardato0(0x02,0);
  5140  1401  1283               	bcf	3,5	;RP0=0, select bank0
  5141  1402  1303               	bcf	3,6	;RP1=0, select bank0
  5142  1403  01AC               	clrf	enviardato0@dato
  5143  1404  3002               	movlw	2
  5144  1405  120A  118A  27CA  160A  118A  	fcall	_enviardato0
  5145                           
  5146                           ;Trayectoria.c: 865: enviardato0(0x03,0);
  5147  140A  1283               	bcf	3,5	;RP0=0, select bank0
  5148  140B  1303               	bcf	3,6	;RP1=0, select bank0
  5149  140C  01AC               	clrf	enviardato0@dato
  5150  140D  3003               	movlw	3
  5151  140E  120A  118A  27CA  160A  118A  	fcall	_enviardato0
  5152                           
  5153                           ;Trayectoria.c: 866: enviardato0(0x04,0);
  5154  1413  1283               	bcf	3,5	;RP0=0, select bank0
  5155  1414  1303               	bcf	3,6	;RP1=0, select bank0
  5156  1415  01AC               	clrf	enviardato0@dato
  5157  1416  3004               	movlw	4
  5158  1417  120A  118A  27CA  160A  118A  	fcall	_enviardato0
  5159                           
  5160                           ;Trayectoria.c: 867: enviardato0(0x05,0);
  5161  141C  1283               	bcf	3,5	;RP0=0, select bank0
  5162  141D  1303               	bcf	3,6	;RP1=0, select bank0
  5163  141E  01AC               	clrf	enviardato0@dato
  5164  141F  3005               	movlw	5
  5165  1420  120A  118A  27CA  160A  118A  	fcall	_enviardato0
  5166                           
  5167                           ;Trayectoria.c: 868: enviardato0(0x06,0);
  5168  1425  1283               	bcf	3,5	;RP0=0, select bank0
  5169  1426  1303               	bcf	3,6	;RP1=0, select bank0
  5170  1427  01AC               	clrf	enviardato0@dato
  5171  1428  3006               	movlw	6
  5172  1429  120A  118A  27CA  160A  118A  	fcall	_enviardato0
  5173                           
  5174                           ;Trayectoria.c: 869: enviardato0(0x07,0);
  5175  142E  1283               	bcf	3,5	;RP0=0, select bank0
  5176  142F  1303               	bcf	3,6	;RP1=0, select bank0
  5177  1430  01AC               	clrf	enviardato0@dato
  5178  1431  3007               	movlw	7
  5179  1432  120A  118A  27CA  160A  118A  	fcall	_enviardato0
  5180                           
  5181                           ;Trayectoria.c: 870: enviardato0(0x08,0);
  5182  1437  1283               	bcf	3,5	;RP0=0, select bank0
  5183  1438  1303               	bcf	3,6	;RP1=0, select bank0
  5184  1439  01AC               	clrf	enviardato0@dato
  5185  143A  3008               	movlw	8
  5186  143B  120A  118A  27CA  160A  118A  	fcall	_enviardato0
  5187                           
  5188                           ;Trayectoria.c: 871: if(gol1==1 && gol2==0)
  5189  1440  1283               	bcf	3,5	;RP0=0, select bank0
  5190  1441  1303               	bcf	3,6	;RP1=0, select bank0
  5191  1442  0360               	decf	_gol1,w
  5192  1443  1D03               	btfss	3,2
  5193  1444  2C5D               	goto	l2484
  5194  1445  0857               	movf	_gol2,w
  5195  1446  1D03               	btfss	3,2
  5196  1447  2C5D               	goto	l2484
  5197                           
  5198                           ;Trayectoria.c: 872: {
  5199                           ;Trayectoria.c: 873: filaball=0x02;
  5200  1448  3002               	movlw	2
  5201  1449  00BE               	movwf	??_Saque
  5202  144A  083E               	movf	??_Saque,w
  5203  144B  00DE               	movwf	_filaball
  5204                           
  5205                           ;Trayectoria.c: 874: ledball=0x08;
  5206  144C  3008               	movlw	8
  5207  144D  00BE               	movwf	??_Saque
  5208  144E  083E               	movf	??_Saque,w
  5209  144F  00DF               	movwf	_ledball
  5210                           
  5211                           ;Trayectoria.c: 875: Trayectoria=1;
  5212  1450  01DC               	clrf	_Trayectoria
  5213  1451  0ADC               	incf	_Trayectoria,f
  5214                           
  5215                           ;Trayectoria.c: 876: enviardato(filaball,ledball);
  5216  1452  085F               	movf	_ledball,w
  5217  1453  00BE               	movwf	??_Saque
  5218  1454  083E               	movf	??_Saque,w
  5219  1455  00AC               	movwf	enviardato@dato
  5220  1456  085E               	movf	_filaball,w
  5221  1457  160A  118A  2146  160A  118A  	fcall	_enviardato
  5222                           
  5223                           ;Trayectoria.c: 877: }
  5224  145C  2C7B               	goto	l2492
  5225  145D                     l2484:	
  5226                           
  5227                           ;Trayectoria.c: 878: else if(gol1==0 && gol2==1)
  5228  145D  1283               	bcf	3,5	;RP0=0, select bank0
  5229  145E  1303               	bcf	3,6	;RP1=0, select bank0
  5230  145F  0860               	movf	_gol1,w
  5231  1460  1D03               	btfss	3,2
  5232  1461  2C7B               	goto	l2492
  5233  1462  0357               	decf	_gol2,w
  5234  1463  1D03               	btfss	3,2
  5235  1464  2C7B               	goto	l2492
  5236                           
  5237                           ;Trayectoria.c: 879: {
  5238                           ;Trayectoria.c: 880: filaball=0x0E;
  5239  1465  300E               	movlw	14
  5240  1466  00BE               	movwf	??_Saque
  5241  1467  083E               	movf	??_Saque,w
  5242  1468  00DE               	movwf	_filaball
  5243                           
  5244                           ;Trayectoria.c: 881: ledball=0x08;
  5245  1469  3008               	movlw	8
  5246  146A  00BE               	movwf	??_Saque
  5247  146B  083E               	movf	??_Saque,w
  5248  146C  00DF               	movwf	_ledball
  5249                           
  5250                           ;Trayectoria.c: 882: Trayectoria=2;
  5251  146D  3002               	movlw	2
  5252  146E  00BE               	movwf	??_Saque
  5253  146F  083E               	movf	??_Saque,w
  5254  1470  00DC               	movwf	_Trayectoria
  5255                           
  5256                           ;Trayectoria.c: 884: enviardato2(0x07,ledball);
  5257  1471  085F               	movf	_ledball,w
  5258  1472  00BE               	movwf	??_Saque
  5259  1473  083E               	movf	??_Saque,w
  5260  1474  00AC               	movwf	enviardato2@dato
  5261  1475  3007               	movlw	7
  5262  1476  160A  118A  2167  160A  118A  	fcall	_enviardato2
  5263  147B                     l2492:	
  5264                           
  5265                           ;Trayectoria.c: 885: }
  5266                           ;Trayectoria.c: 886: barras(ledbarra1,ledbarra2);
  5267  147B  087D               	movf	_ledbarra2,w
  5268  147C  1283               	bcf	3,5	;RP0=0, select bank0
  5269  147D  1303               	bcf	3,6	;RP1=0, select bank0
  5270  147E  00BE               	movwf	??_Saque
  5271  147F  083E               	movf	??_Saque,w
  5272  1480  00B5               	movwf	barras@posicionbarra2
  5273  1481  085D               	movf	_ledbarra1,w
  5274  1482  160A  118A  229A   	fcall	_barras
  5275  1485  0008               	return
  5276  1486                     __end_of_Saque:	
  5277                           
  5278                           	psect	text9
  5279  129A                     __ptext9:	
  5280 ;; *************** function _barras *****************
  5281 ;; Defined at:
  5282 ;;		line 1045 in file "Trayectoria.c"
  5283 ;; Parameters:    Size  Location     Type
  5284 ;;  posicionbarr    1    wreg     unsigned char 
  5285 ;;  posicionbarr    1   21[BANK0 ] unsigned char 
  5286 ;; Auto vars:     Size  Location     Type
  5287 ;;  posicionbarr    1   29[BANK0 ] unsigned char 
  5288 ;;  barrafinal2     1   28[BANK0 ] unsigned char 
  5289 ;;  barrafinal1     1   27[BANK0 ] unsigned char 
  5290 ;; Return value:  Size  Location     Type
  5291 ;;                  1    wreg      void 
  5292 ;; Registers used:
  5293 ;;		wreg, status,2, status,0, pclath, cstack
  5294 ;; Tracked objects:
  5295 ;;		On entry : 0/0
  5296 ;;		On exit  : 0/0
  5297 ;;		Unchanged: 0/0
  5298 ;; Data sizes:     COMMON   BANK0   BANK1   BANK3   BANK2
  5299 ;;      Params:         0       1       0       0       0
  5300 ;;      Locals:         0       3       0       0       0
  5301 ;;      Temps:          0       5       0       0       0
  5302 ;;      Totals:         0       9       0       0       0
  5303 ;;Total ram usage:        9 bytes
  5304 ;; Hardware stack levels used:    1
  5305 ;; Hardware stack levels required when called:    4
  5306 ;; This function calls:
  5307 ;;		___awdiv
  5308 ;;		_enviardato
  5309 ;;		_enviardato2
  5310 ;; This function is called by:
  5311 ;;		_main
  5312 ;;		_Posicioninicial
  5313 ;;		_Juego
  5314 ;;		_Saque
  5315 ;;		_moverbarra
  5316 ;; This function uses a non-reentrant model
  5317 ;;
  5318                           
  5319                           
  5320                           ;psect for function _barras
  5321  129A                     _barras:	
  5322                           
  5323                           ;incstack = 0
  5324                           ; Regs used in _barras: [wreg+status,2+status,0+pclath+cstack]
  5325                           ;barras@posicionbarra1 stored from wreg
  5326  129A  1283               	bcf	3,5	;RP0=0, select bank0
  5327  129B  1303               	bcf	3,6	;RP1=0, select bank0
  5328  129C  00BD               	movwf	barras@posicionbarra1
  5329                           
  5330                           ;Trayectoria.c: 1048: unsigned char barrafinal1=0;
  5331  129D  01BB               	clrf	barras@barrafinal1
  5332                           
  5333                           ;Trayectoria.c: 1049: barrafinal1=posicionbarra1+(2*posicionbarra1)+(posicionbarra1/2);
  5334  129E  083D               	movf	barras@posicionbarra1,w
  5335  129F  00B6               	movwf	??_barras
  5336  12A0  3001               	movlw	1
  5337  12A1                     u1985:	
  5338  12A1  1003               	clrc
  5339  12A2  0DB6               	rlf	??_barras,f
  5340  12A3  3EFF               	addlw	-1
  5341  12A4  1D03               	skipz
  5342  12A5  2AA1               	goto	u1985
  5343  12A6  3002               	movlw	2
  5344  12A7  00AC               	movwf	___awdiv@divisor
  5345  12A8  3000               	movlw	0
  5346  12A9  00AD               	movwf	___awdiv@divisor+1
  5347  12AA  083D               	movf	barras@posicionbarra1,w
  5348  12AB  00B7               	movwf	??_barras+1
  5349  12AC  01B8               	clrf	??_barras+2
  5350  12AD  0837               	movf	??_barras+1,w
  5351  12AE  00AE               	movwf	___awdiv@dividend
  5352  12AF  0838               	movf	??_barras+2,w
  5353  12B0  00AF               	movwf	___awdiv@dividend+1
  5354  12B1  160A  118A  21E1  160A  118A  	fcall	___awdiv
  5355  12B6  1283               	bcf	3,5	;RP0=0, select bank0
  5356  12B7  1303               	bcf	3,6	;RP1=0, select bank0
  5357  12B8  082C               	movf	?___awdiv,w
  5358  12B9  0736               	addwf	??_barras,w
  5359  12BA  00B9               	movwf	??_barras+3
  5360  12BB  083D               	movf	barras@posicionbarra1,w
  5361  12BC  0739               	addwf	??_barras+3,w
  5362  12BD  00BA               	movwf	??_barras+4
  5363  12BE  083A               	movf	??_barras+4,w
  5364  12BF  00BB               	movwf	barras@barrafinal1
  5365                           
  5366                           ;Trayectoria.c: 1050: enviardato(0x01,barrafinal1);
  5367  12C0  083B               	movf	barras@barrafinal1,w
  5368  12C1  00B6               	movwf	??_barras
  5369  12C2  0836               	movf	??_barras,w
  5370  12C3  00AC               	movwf	enviardato@dato
  5371  12C4  3001               	movlw	1
  5372  12C5  160A  118A  2146  160A  118A  	fcall	_enviardato
  5373                           
  5374                           ;Trayectoria.c: 1052: unsigned char barrafinal2=0;
  5375  12CA  1283               	bcf	3,5	;RP0=0, select bank0
  5376  12CB  1303               	bcf	3,6	;RP1=0, select bank0
  5377  12CC  01BC               	clrf	barras@barrafinal2
  5378                           
  5379                           ;Trayectoria.c: 1053: barrafinal2=posicionbarra2+(2*posicionbarra2)+(posicionbarra2/2);
  5380  12CD  0835               	movf	barras@posicionbarra2,w
  5381  12CE  00B6               	movwf	??_barras
  5382  12CF  3001               	movlw	1
  5383  12D0                     u1995:	
  5384  12D0  1003               	clrc
  5385  12D1  0DB6               	rlf	??_barras,f
  5386  12D2  3EFF               	addlw	-1
  5387  12D3  1D03               	skipz
  5388  12D4  2AD0               	goto	u1995
  5389  12D5  3002               	movlw	2
  5390  12D6  00AC               	movwf	___awdiv@divisor
  5391  12D7  3000               	movlw	0
  5392  12D8  00AD               	movwf	___awdiv@divisor+1
  5393  12D9  0835               	movf	barras@posicionbarra2,w
  5394  12DA  00B7               	movwf	??_barras+1
  5395  12DB  01B8               	clrf	??_barras+2
  5396  12DC  0837               	movf	??_barras+1,w
  5397  12DD  00AE               	movwf	___awdiv@dividend
  5398  12DE  0838               	movf	??_barras+2,w
  5399  12DF  00AF               	movwf	___awdiv@dividend+1
  5400  12E0  160A  118A  21E1  160A  118A  	fcall	___awdiv
  5401  12E5  1283               	bcf	3,5	;RP0=0, select bank0
  5402  12E6  1303               	bcf	3,6	;RP1=0, select bank0
  5403  12E7  082C               	movf	?___awdiv,w
  5404  12E8  0736               	addwf	??_barras,w
  5405  12E9  00B9               	movwf	??_barras+3
  5406  12EA  0835               	movf	barras@posicionbarra2,w
  5407  12EB  0739               	addwf	??_barras+3,w
  5408  12EC  00BA               	movwf	??_barras+4
  5409  12ED  083A               	movf	??_barras+4,w
  5410  12EE  00BC               	movwf	barras@barrafinal2
  5411                           
  5412                           ;Trayectoria.c: 1054: enviardato2(0x08,barrafinal2);
  5413  12EF  083C               	movf	barras@barrafinal2,w
  5414  12F0  00B6               	movwf	??_barras
  5415  12F1  0836               	movf	??_barras,w
  5416  12F2  00AC               	movwf	enviardato2@dato
  5417  12F3  3008               	movlw	8
  5418  12F4  160A  118A  2167   	fcall	_enviardato2
  5419  12F7  0008               	return
  5420  12F8                     __end_of_barras:	
  5421                           
  5422                           	psect	text10
  5423  11E1                     __ptext10:	
  5424 ;; *************** function ___awdiv *****************
  5425 ;; Defined at:
  5426 ;;		line 6 in file "C:\Program Files (x86)\Microchip\xc8\v1.45\sources\common\awdiv.c"
  5427 ;; Parameters:    Size  Location     Type
  5428 ;;  divisor         2   12[BANK0 ] int 
  5429 ;;  dividend        2   14[BANK0 ] int 
  5430 ;; Auto vars:     Size  Location     Type
  5431 ;;  quotient        2   19[BANK0 ] int 
  5432 ;;  sign            1   18[BANK0 ] unsigned char 
  5433 ;;  counter         1   17[BANK0 ] unsigned char 
  5434 ;; Return value:  Size  Location     Type
  5435 ;;                  2   12[BANK0 ] int 
  5436 ;; Registers used:
  5437 ;;		wreg, status,2, status,0
  5438 ;; Tracked objects:
  5439 ;;		On entry : 0/0
  5440 ;;		On exit  : 0/0
  5441 ;;		Unchanged: 0/0
  5442 ;; Data sizes:     COMMON   BANK0   BANK1   BANK3   BANK2
  5443 ;;      Params:         0       4       0       0       0
  5444 ;;      Locals:         0       4       0       0       0
  5445 ;;      Temps:          0       1       0       0       0
  5446 ;;      Totals:         0       9       0       0       0
  5447 ;;Total ram usage:        9 bytes
  5448 ;; Hardware stack levels used:    1
  5449 ;; Hardware stack levels required when called:    3
  5450 ;; This function calls:
  5451 ;;		Nothing
  5452 ;; This function is called by:
  5453 ;;		_Posicioninicial
  5454 ;;		_Juego
  5455 ;;		_barras
  5456 ;;		_moverbarra
  5457 ;; This function uses a non-reentrant model
  5458 ;;
  5459                           
  5460                           
  5461                           ;psect for function ___awdiv
  5462  11E1                     ___awdiv:	
  5463                           
  5464                           ;incstack = 0
  5465                           ; Regs used in ___awdiv: [wreg+status,2+status,0]
  5466  11E1  1283               	bcf	3,5	;RP0=0, select bank0
  5467  11E2  1303               	bcf	3,6	;RP1=0, select bank0
  5468  11E3  01B2               	clrf	___awdiv@sign
  5469  11E4  1FAD               	btfss	___awdiv@divisor+1,7
  5470  11E5  29ED               	goto	l2308
  5471  11E6  09AC               	comf	___awdiv@divisor,f
  5472  11E7  09AD               	comf	___awdiv@divisor+1,f
  5473  11E8  0AAC               	incf	___awdiv@divisor,f
  5474  11E9  1903               	skipnz
  5475  11EA  0AAD               	incf	___awdiv@divisor+1,f
  5476  11EB  01B2               	clrf	___awdiv@sign
  5477  11EC  0AB2               	incf	___awdiv@sign,f
  5478  11ED                     l2308:	
  5479  11ED  1FAF               	btfss	___awdiv@dividend+1,7
  5480  11EE  29F8               	goto	l2314
  5481  11EF  09AE               	comf	___awdiv@dividend,f
  5482  11F0  09AF               	comf	___awdiv@dividend+1,f
  5483  11F1  0AAE               	incf	___awdiv@dividend,f
  5484  11F2  1903               	skipnz
  5485  11F3  0AAF               	incf	___awdiv@dividend+1,f
  5486  11F4  3001               	movlw	1
  5487  11F5  00B0               	movwf	??___awdiv
  5488  11F6  0830               	movf	??___awdiv,w
  5489  11F7  06B2               	xorwf	___awdiv@sign,f
  5490  11F8                     l2314:	
  5491  11F8  01B3               	clrf	___awdiv@quotient
  5492  11F9  01B4               	clrf	___awdiv@quotient+1
  5493  11FA  082C               	movf	___awdiv@divisor,w
  5494  11FB  042D               	iorwf	___awdiv@divisor+1,w
  5495  11FC  1903               	btfsc	3,2
  5496  11FD  2A2F               	goto	l2336
  5497  11FE  01B1               	clrf	___awdiv@counter
  5498  11FF  0AB1               	incf	___awdiv@counter,f
  5499  1200                     l2324:	
  5500  1200  1BAD               	btfsc	___awdiv@divisor+1,7
  5501  1201  2A0E               	goto	l2326
  5502  1202  3001               	movlw	1
  5503  1203                     u1915:	
  5504  1203  1003               	clrc
  5505  1204  0DAC               	rlf	___awdiv@divisor,f
  5506  1205  0DAD               	rlf	___awdiv@divisor+1,f
  5507  1206  3EFF               	addlw	-1
  5508  1207  1D03               	skipz
  5509  1208  2A03               	goto	u1915
  5510  1209  3001               	movlw	1
  5511  120A  00B0               	movwf	??___awdiv
  5512  120B  0830               	movf	??___awdiv,w
  5513  120C  07B1               	addwf	___awdiv@counter,f
  5514  120D  2A00               	goto	l2324
  5515  120E                     l2326:	
  5516  120E  3001               	movlw	1
  5517  120F                     u1935:	
  5518  120F  1003               	clrc
  5519  1210  0DB3               	rlf	___awdiv@quotient,f
  5520  1211  0DB4               	rlf	___awdiv@quotient+1,f
  5521  1212  3EFF               	addlw	-1
  5522  1213  1D03               	skipz
  5523  1214  2A0F               	goto	u1935
  5524  1215  082D               	movf	___awdiv@divisor+1,w
  5525  1216  022F               	subwf	___awdiv@dividend+1,w
  5526  1217  1D03               	skipz
  5527  1218  2A1B               	goto	u1945
  5528  1219  082C               	movf	___awdiv@divisor,w
  5529  121A  022E               	subwf	___awdiv@dividend,w
  5530  121B                     u1945:	
  5531  121B  1C03               	skipc
  5532  121C  2A24               	goto	l2332
  5533  121D  082C               	movf	___awdiv@divisor,w
  5534  121E  02AE               	subwf	___awdiv@dividend,f
  5535  121F  082D               	movf	___awdiv@divisor+1,w
  5536  1220  1C03               	skipc
  5537  1221  03AF               	decf	___awdiv@dividend+1,f
  5538  1222  02AF               	subwf	___awdiv@dividend+1,f
  5539  1223  1433               	bsf	___awdiv@quotient,0
  5540  1224                     l2332:	
  5541  1224  3001               	movlw	1
  5542  1225                     u1955:	
  5543  1225  1003               	clrc
  5544  1226  0CAD               	rrf	___awdiv@divisor+1,f
  5545  1227  0CAC               	rrf	___awdiv@divisor,f
  5546  1228  3EFF               	addlw	-1
  5547  1229  1D03               	skipz
  5548  122A  2A25               	goto	u1955
  5549  122B  3001               	movlw	1
  5550  122C  02B1               	subwf	___awdiv@counter,f
  5551  122D  1D03               	btfss	3,2
  5552  122E  2A0E               	goto	l2326
  5553  122F                     l2336:	
  5554  122F  0832               	movf	___awdiv@sign,w
  5555  1230  1903               	btfsc	3,2
  5556  1231  2A37               	goto	l2340
  5557  1232  09B3               	comf	___awdiv@quotient,f
  5558  1233  09B4               	comf	___awdiv@quotient+1,f
  5559  1234  0AB3               	incf	___awdiv@quotient,f
  5560  1235  1903               	skipnz
  5561  1236  0AB4               	incf	___awdiv@quotient+1,f
  5562  1237                     l2340:	
  5563  1237  0834               	movf	___awdiv@quotient+1,w
  5564  1238  00AD               	movwf	?___awdiv+1
  5565  1239  0833               	movf	___awdiv@quotient,w
  5566  123A  00AC               	movwf	?___awdiv
  5567  123B  0008               	return
  5568  123C                     __end_of___awdiv:	
  5569                           
  5570                           	psect	text11
  5571  0BBF                     __ptext11:	
  5572 ;; *************** function _Marcador *****************
  5573 ;; Defined at:
  5574 ;;		line 889 in file "Trayectoria.c"
  5575 ;; Parameters:    Size  Location     Type
  5576 ;;		None
  5577 ;; Auto vars:     Size  Location     Type
  5578 ;;		None
  5579 ;; Return value:  Size  Location     Type
  5580 ;;                  1    wreg      void 
  5581 ;; Registers used:
  5582 ;;		wreg, fsr0l, fsr0h, status,2, status,0, pclath, cstack
  5583 ;; Tracked objects:
  5584 ;;		On entry : 0/0
  5585 ;;		On exit  : 0/0
  5586 ;;		Unchanged: 0/0
  5587 ;; Data sizes:     COMMON   BANK0   BANK1   BANK3   BANK2
  5588 ;;      Params:         0       0       0       0       0
  5589 ;;      Locals:         0       0       0       0       0
  5590 ;;      Temps:          0       3       0       0       0
  5591 ;;      Totals:         0       3       0       0       0
  5592 ;;Total ram usage:        3 bytes
  5593 ;; Hardware stack levels used:    1
  5594 ;; Hardware stack levels required when called:    4
  5595 ;; This function calls:
  5596 ;;		_enviardato
  5597 ;;		_enviardato0
  5598 ;;		_enviardato2
  5599 ;; This function is called by:
  5600 ;;		_Juego
  5601 ;; This function uses a non-reentrant model
  5602 ;;
  5603                           
  5604                           
  5605                           ;psect for function _Marcador
  5606  0BBF                     _Marcador:	
  5607                           
  5608                           ;Trayectoria.c: 891: INTCONbits.RBIE=0;
  5609                           
  5610                           ;incstack = 0
  5611                           ; Regs used in _Marcador: [wreg-fsr0h+status,2+status,0+pclath+cstack]
  5612  0BBF  118B               	bcf	11,3	;volatile
  5613                           
  5614                           ;Trayectoria.c: 907: enviardato0(0x01,0);
  5615  0BC0  1283               	bcf	3,5	;RP0=0, select bank0
  5616  0BC1  1303               	bcf	3,6	;RP1=0, select bank0
  5617  0BC2  01AC               	clrf	enviardato0@dato
  5618  0BC3  3001               	movlw	1
  5619  0BC4  120A  118A  27CA  120A  158A  	fcall	_enviardato0
  5620                           
  5621                           ;Trayectoria.c: 908: enviardato0(0x02,0);
  5622  0BC9  1283               	bcf	3,5	;RP0=0, select bank0
  5623  0BCA  1303               	bcf	3,6	;RP1=0, select bank0
  5624  0BCB  01AC               	clrf	enviardato0@dato
  5625  0BCC  3002               	movlw	2
  5626  0BCD  120A  118A  27CA  120A  158A  	fcall	_enviardato0
  5627                           
  5628                           ;Trayectoria.c: 909: enviardato0(0x03,0);
  5629  0BD2  1283               	bcf	3,5	;RP0=0, select bank0
  5630  0BD3  1303               	bcf	3,6	;RP1=0, select bank0
  5631  0BD4  01AC               	clrf	enviardato0@dato
  5632  0BD5  3003               	movlw	3
  5633  0BD6  120A  118A  27CA  120A  158A  	fcall	_enviardato0
  5634                           
  5635                           ;Trayectoria.c: 910: enviardato0(0x04,0);
  5636  0BDB  1283               	bcf	3,5	;RP0=0, select bank0
  5637  0BDC  1303               	bcf	3,6	;RP1=0, select bank0
  5638  0BDD  01AC               	clrf	enviardato0@dato
  5639  0BDE  3004               	movlw	4
  5640  0BDF  120A  118A  27CA  120A  158A  	fcall	_enviardato0
  5641                           
  5642                           ;Trayectoria.c: 911: enviardato0(0x05,0);
  5643  0BE4  1283               	bcf	3,5	;RP0=0, select bank0
  5644  0BE5  1303               	bcf	3,6	;RP1=0, select bank0
  5645  0BE6  01AC               	clrf	enviardato0@dato
  5646  0BE7  3005               	movlw	5
  5647  0BE8  120A  118A  27CA  120A  158A  	fcall	_enviardato0
  5648                           
  5649                           ;Trayectoria.c: 912: enviardato0(0x06,0);
  5650  0BED  1283               	bcf	3,5	;RP0=0, select bank0
  5651  0BEE  1303               	bcf	3,6	;RP1=0, select bank0
  5652  0BEF  01AC               	clrf	enviardato0@dato
  5653  0BF0  3006               	movlw	6
  5654  0BF1  120A  118A  27CA  120A  158A  	fcall	_enviardato0
  5655                           
  5656                           ;Trayectoria.c: 913: enviardato0(0x07,0);
  5657  0BF6  1283               	bcf	3,5	;RP0=0, select bank0
  5658  0BF7  1303               	bcf	3,6	;RP1=0, select bank0
  5659  0BF8  01AC               	clrf	enviardato0@dato
  5660  0BF9  3007               	movlw	7
  5661  0BFA  120A  118A  27CA  120A  158A  	fcall	_enviardato0
  5662                           
  5663                           ;Trayectoria.c: 914: enviardato0(0x08,0);
  5664  0BFF  1283               	bcf	3,5	;RP0=0, select bank0
  5665  0C00  1303               	bcf	3,6	;RP1=0, select bank0
  5666  0C01  01AC               	clrf	enviardato0@dato
  5667  0C02  3008               	movlw	8
  5668  0C03  120A  118A  27CA  120A  158A  	fcall	_enviardato0
  5669                           
  5670                           ;Trayectoria.c: 915: enviardato(0x08,0x08);
  5671  0C08  3008               	movlw	8
  5672  0C09  1283               	bcf	3,5	;RP0=0, select bank0
  5673  0C0A  1303               	bcf	3,6	;RP1=0, select bank0
  5674  0C0B  00B0               	movwf	??_Marcador
  5675  0C0C  0830               	movf	??_Marcador,w
  5676  0C0D  00AC               	movwf	enviardato@dato
  5677  0C0E  3008               	movlw	8
  5678  0C0F  160A  118A  2146  120A  158A  	fcall	_enviardato
  5679                           
  5680                           ;Trayectoria.c: 916: enviardato2(0x01,0x08);
  5681  0C14  3008               	movlw	8
  5682  0C15  1283               	bcf	3,5	;RP0=0, select bank0
  5683  0C16  1303               	bcf	3,6	;RP1=0, select bank0
  5684  0C17  00B0               	movwf	??_Marcador
  5685  0C18  0830               	movf	??_Marcador,w
  5686  0C19  00AC               	movwf	enviardato2@dato
  5687  0C1A  3001               	movlw	1
  5688  0C1B  160A  118A  2167  120A  158A  	fcall	_enviardato2
  5689                           
  5690                           ;Trayectoria.c: 917: switch (puntaje1)
  5691  0C20  2DE7               	goto	l2430
  5692  0C21                     l2410:	
  5693                           ;Trayectoria.c: 918: {
  5694                           ;Trayectoria.c: 919: case 1:
  5695                           
  5696                           
  5697                           ;Trayectoria.c: 920: enviardato(0x05,0b01111110);
  5698  0C21  307E               	movlw	126
  5699  0C22  1283               	bcf	3,5	;RP0=0, select bank0
  5700  0C23  1303               	bcf	3,6	;RP1=0, select bank0
  5701  0C24  00B0               	movwf	??_Marcador
  5702  0C25  0830               	movf	??_Marcador,w
  5703  0C26  00AC               	movwf	enviardato@dato
  5704  0C27  3005               	movlw	5
  5705  0C28  160A  118A  2146  120A  158A  	fcall	_enviardato
  5706                           
  5707                           ;Trayectoria.c: 921: break;
  5708  0C2D  2FCE               	goto	l2452
  5709  0C2E                     l2412:	
  5710                           ;Trayectoria.c: 922: case 2:
  5711                           
  5712                           
  5713                           ;Trayectoria.c: 923: enviardato(0x06,0b01000110);
  5714  0C2E  3046               	movlw	70
  5715  0C2F  1283               	bcf	3,5	;RP0=0, select bank0
  5716  0C30  1303               	bcf	3,6	;RP1=0, select bank0
  5717  0C31  00B0               	movwf	??_Marcador
  5718  0C32  0830               	movf	??_Marcador,w
  5719  0C33  00AC               	movwf	enviardato@dato
  5720  0C34  3006               	movlw	6
  5721  0C35  160A  118A  2146  120A  158A  	fcall	_enviardato
  5722                           
  5723                           ;Trayectoria.c: 924: enviardato(0x05,0b01001010);
  5724  0C3A  304A               	movlw	74
  5725  0C3B  1283               	bcf	3,5	;RP0=0, select bank0
  5726  0C3C  1303               	bcf	3,6	;RP1=0, select bank0
  5727  0C3D  00B0               	movwf	??_Marcador
  5728  0C3E  0830               	movf	??_Marcador,w
  5729  0C3F  00AC               	movwf	enviardato@dato
  5730  0C40  3005               	movlw	5
  5731  0C41  160A  118A  2146  120A  158A  	fcall	_enviardato
  5732                           
  5733                           ;Trayectoria.c: 925: enviardato(0x04,0b01010010);
  5734  0C46  3052               	movlw	82
  5735  0C47  1283               	bcf	3,5	;RP0=0, select bank0
  5736  0C48  1303               	bcf	3,6	;RP1=0, select bank0
  5737  0C49  00B0               	movwf	??_Marcador
  5738  0C4A  0830               	movf	??_Marcador,w
  5739  0C4B  00AC               	movwf	enviardato@dato
  5740  0C4C  3004               	movlw	4
  5741  0C4D  160A  118A  2146  120A  158A  	fcall	_enviardato
  5742                           
  5743                           ;Trayectoria.c: 926: enviardato(0x03,0b01100010);
  5744  0C52  3062               	movlw	98
  5745  0C53  1283               	bcf	3,5	;RP0=0, select bank0
  5746  0C54  1303               	bcf	3,6	;RP1=0, select bank0
  5747  0C55  00B0               	movwf	??_Marcador
  5748  0C56  0830               	movf	??_Marcador,w
  5749  0C57  00AC               	movwf	enviardato@dato
  5750  0C58  3003               	movlw	3
  5751  0C59  160A  118A  2146  120A  158A  	fcall	_enviardato
  5752                           
  5753                           ;Trayectoria.c: 927: break;
  5754  0C5E  2FCE               	goto	l2452
  5755  0C5F                     l2414:	
  5756                           ;Trayectoria.c: 928: case 3:
  5757                           
  5758                           
  5759                           ;Trayectoria.c: 929: enviardato(0x06,0b00101010);
  5760  0C5F  302A               	movlw	42
  5761  0C60  1283               	bcf	3,5	;RP0=0, select bank0
  5762  0C61  1303               	bcf	3,6	;RP1=0, select bank0
  5763  0C62  00B0               	movwf	??_Marcador
  5764  0C63  0830               	movf	??_Marcador,w
  5765  0C64  00AC               	movwf	enviardato@dato
  5766  0C65  3006               	movlw	6
  5767  0C66  160A  118A  2146  120A  158A  	fcall	_enviardato
  5768                           
  5769                           ;Trayectoria.c: 930: enviardato(0x05,0b00101010);
  5770  0C6B  302A               	movlw	42
  5771  0C6C  1283               	bcf	3,5	;RP0=0, select bank0
  5772  0C6D  1303               	bcf	3,6	;RP1=0, select bank0
  5773  0C6E  00B0               	movwf	??_Marcador
  5774  0C6F  0830               	movf	??_Marcador,w
  5775  0C70  00AC               	movwf	enviardato@dato
  5776  0C71  3005               	movlw	5
  5777  0C72  160A  118A  2146  120A  158A  	fcall	_enviardato
  5778                           
  5779                           ;Trayectoria.c: 931: enviardato(0x04,0b00101010);
  5780  0C77  302A               	movlw	42
  5781  0C78  1283               	bcf	3,5	;RP0=0, select bank0
  5782  0C79  1303               	bcf	3,6	;RP1=0, select bank0
  5783  0C7A  00B0               	movwf	??_Marcador
  5784  0C7B  0830               	movf	??_Marcador,w
  5785  0C7C  00AC               	movwf	enviardato@dato
  5786  0C7D  3004               	movlw	4
  5787  0C7E  160A  118A  2146  120A  158A  	fcall	_enviardato
  5788                           
  5789                           ;Trayectoria.c: 932: enviardato(0x03,0b01111110);
  5790  0C83  307E               	movlw	126
  5791  0C84  1283               	bcf	3,5	;RP0=0, select bank0
  5792  0C85  1303               	bcf	3,6	;RP1=0, select bank0
  5793  0C86  00B0               	movwf	??_Marcador
  5794  0C87  0830               	movf	??_Marcador,w
  5795  0C88  00AC               	movwf	enviardato@dato
  5796  0C89  3003               	movlw	3
  5797  0C8A  160A  118A  2146  120A  158A  	fcall	_enviardato
  5798                           
  5799                           ;Trayectoria.c: 933: break;
  5800  0C8F  2FCE               	goto	l2452
  5801  0C90                     l2416:	
  5802                           ;Trayectoria.c: 934: case 4:
  5803                           
  5804                           
  5805                           ;Trayectoria.c: 935: enviardato(0x06,0b01111000);
  5806  0C90  3078               	movlw	120
  5807  0C91  1283               	bcf	3,5	;RP0=0, select bank0
  5808  0C92  1303               	bcf	3,6	;RP1=0, select bank0
  5809  0C93  00B0               	movwf	??_Marcador
  5810  0C94  0830               	movf	??_Marcador,w
  5811  0C95  00AC               	movwf	enviardato@dato
  5812  0C96  3006               	movlw	6
  5813  0C97  160A  118A  2146  120A  158A  	fcall	_enviardato
  5814                           
  5815                           ;Trayectoria.c: 936: enviardato(0x05,0x08);
  5816  0C9C  3008               	movlw	8
  5817  0C9D  1283               	bcf	3,5	;RP0=0, select bank0
  5818  0C9E  1303               	bcf	3,6	;RP1=0, select bank0
  5819  0C9F  00B0               	movwf	??_Marcador
  5820  0CA0  0830               	movf	??_Marcador,w
  5821  0CA1  00AC               	movwf	enviardato@dato
  5822  0CA2  3005               	movlw	5
  5823  0CA3  160A  118A  2146  120A  158A  	fcall	_enviardato
  5824                           
  5825                           ;Trayectoria.c: 937: enviardato(0x04,0x08);
  5826  0CA8  3008               	movlw	8
  5827  0CA9  1283               	bcf	3,5	;RP0=0, select bank0
  5828  0CAA  1303               	bcf	3,6	;RP1=0, select bank0
  5829  0CAB  00B0               	movwf	??_Marcador
  5830  0CAC  0830               	movf	??_Marcador,w
  5831  0CAD  00AC               	movwf	enviardato@dato
  5832  0CAE  3004               	movlw	4
  5833  0CAF  160A  118A  2146  120A  158A  	fcall	_enviardato
  5834                           
  5835                           ;Trayectoria.c: 938: enviardato(0x03,0b01111110);
  5836  0CB4  307E               	movlw	126
  5837  0CB5  1283               	bcf	3,5	;RP0=0, select bank0
  5838  0CB6  1303               	bcf	3,6	;RP1=0, select bank0
  5839  0CB7  00B0               	movwf	??_Marcador
  5840  0CB8  0830               	movf	??_Marcador,w
  5841  0CB9  00AC               	movwf	enviardato@dato
  5842  0CBA  3003               	movlw	3
  5843  0CBB  160A  118A  2146  120A  158A  	fcall	_enviardato
  5844                           
  5845                           ;Trayectoria.c: 939: break;
  5846  0CC0  2FCE               	goto	l2452
  5847  0CC1                     l2418:	
  5848                           ;Trayectoria.c: 940: case 5:
  5849                           
  5850                           
  5851                           ;Trayectoria.c: 941: enviardato(0x06,0b01110010);
  5852  0CC1  3072               	movlw	114
  5853  0CC2  1283               	bcf	3,5	;RP0=0, select bank0
  5854  0CC3  1303               	bcf	3,6	;RP1=0, select bank0
  5855  0CC4  00B0               	movwf	??_Marcador
  5856  0CC5  0830               	movf	??_Marcador,w
  5857  0CC6  00AC               	movwf	enviardato@dato
  5858  0CC7  3006               	movlw	6
  5859  0CC8  160A  118A  2146  120A  158A  	fcall	_enviardato
  5860                           
  5861                           ;Trayectoria.c: 942: enviardato(0x05,0b01010010);
  5862  0CCD  3052               	movlw	82
  5863  0CCE  1283               	bcf	3,5	;RP0=0, select bank0
  5864  0CCF  1303               	bcf	3,6	;RP1=0, select bank0
  5865  0CD0  00B0               	movwf	??_Marcador
  5866  0CD1  0830               	movf	??_Marcador,w
  5867  0CD2  00AC               	movwf	enviardato@dato
  5868  0CD3  3005               	movlw	5
  5869  0CD4  160A  118A  2146  120A  158A  	fcall	_enviardato
  5870                           
  5871                           ;Trayectoria.c: 943: enviardato(0x04,0b01010010);
  5872  0CD9  3052               	movlw	82
  5873  0CDA  1283               	bcf	3,5	;RP0=0, select bank0
  5874  0CDB  1303               	bcf	3,6	;RP1=0, select bank0
  5875  0CDC  00B0               	movwf	??_Marcador
  5876  0CDD  0830               	movf	??_Marcador,w
  5877  0CDE  00AC               	movwf	enviardato@dato
  5878  0CDF  3004               	movlw	4
  5879  0CE0  160A  118A  2146  120A  158A  	fcall	_enviardato
  5880                           
  5881                           ;Trayectoria.c: 944: enviardato(0x03,0b01011110);
  5882  0CE5  305E               	movlw	94
  5883  0CE6  1283               	bcf	3,5	;RP0=0, select bank0
  5884  0CE7  1303               	bcf	3,6	;RP1=0, select bank0
  5885  0CE8  00B0               	movwf	??_Marcador
  5886  0CE9  0830               	movf	??_Marcador,w
  5887  0CEA  00AC               	movwf	enviardato@dato
  5888  0CEB  3003               	movlw	3
  5889  0CEC  160A  118A  2146  120A  158A  	fcall	_enviardato
  5890                           
  5891                           ;Trayectoria.c: 945: break;
  5892  0CF1  2FCE               	goto	l2452
  5893  0CF2                     l2420:	
  5894                           ;Trayectoria.c: 946: case 6:
  5895                           
  5896                           
  5897                           ;Trayectoria.c: 947: enviardato(0x06,0b01111110);
  5898  0CF2  307E               	movlw	126
  5899  0CF3  1283               	bcf	3,5	;RP0=0, select bank0
  5900  0CF4  1303               	bcf	3,6	;RP1=0, select bank0
  5901  0CF5  00B0               	movwf	??_Marcador
  5902  0CF6  0830               	movf	??_Marcador,w
  5903  0CF7  00AC               	movwf	enviardato@dato
  5904  0CF8  3006               	movlw	6
  5905  0CF9  160A  118A  2146  120A  158A  	fcall	_enviardato
  5906                           
  5907                           ;Trayectoria.c: 948: enviardato(0x05,0b01010010);
  5908  0CFE  3052               	movlw	82
  5909  0CFF  1283               	bcf	3,5	;RP0=0, select bank0
  5910  0D00  1303               	bcf	3,6	;RP1=0, select bank0
  5911  0D01  00B0               	movwf	??_Marcador
  5912  0D02  0830               	movf	??_Marcador,w
  5913  0D03  00AC               	movwf	enviardato@dato
  5914  0D04  3005               	movlw	5
  5915  0D05  160A  118A  2146  120A  158A  	fcall	_enviardato
  5916                           
  5917                           ;Trayectoria.c: 949: enviardato(0x04,0b01010010);
  5918  0D0A  3052               	movlw	82
  5919  0D0B  1283               	bcf	3,5	;RP0=0, select bank0
  5920  0D0C  1303               	bcf	3,6	;RP1=0, select bank0
  5921  0D0D  00B0               	movwf	??_Marcador
  5922  0D0E  0830               	movf	??_Marcador,w
  5923  0D0F  00AC               	movwf	enviardato@dato
  5924  0D10  3004               	movlw	4
  5925  0D11  160A  118A  2146  120A  158A  	fcall	_enviardato
  5926                           
  5927                           ;Trayectoria.c: 950: enviardato(0x03,0b01011110);
  5928  0D16  305E               	movlw	94
  5929  0D17  1283               	bcf	3,5	;RP0=0, select bank0
  5930  0D18  1303               	bcf	3,6	;RP1=0, select bank0
  5931  0D19  00B0               	movwf	??_Marcador
  5932  0D1A  0830               	movf	??_Marcador,w
  5933  0D1B  00AC               	movwf	enviardato@dato
  5934  0D1C  3003               	movlw	3
  5935  0D1D  160A  118A  2146  120A  158A  	fcall	_enviardato
  5936                           
  5937                           ;Trayectoria.c: 951: break;
  5938  0D22  2FCE               	goto	l2452
  5939  0D23                     l2422:	
  5940                           ;Trayectoria.c: 952: case 7:
  5941                           
  5942                           
  5943                           ;Trayectoria.c: 953: enviardato(0x06,0x40);
  5944  0D23  3040               	movlw	64
  5945  0D24  1283               	bcf	3,5	;RP0=0, select bank0
  5946  0D25  1303               	bcf	3,6	;RP1=0, select bank0
  5947  0D26  00B0               	movwf	??_Marcador
  5948  0D27  0830               	movf	??_Marcador,w
  5949  0D28  00AC               	movwf	enviardato@dato
  5950  0D29  3006               	movlw	6
  5951  0D2A  160A  118A  2146  120A  158A  	fcall	_enviardato
  5952                           
  5953                           ;Trayectoria.c: 954: enviardato(0x05,0x40);
  5954  0D2F  3040               	movlw	64
  5955  0D30  1283               	bcf	3,5	;RP0=0, select bank0
  5956  0D31  1303               	bcf	3,6	;RP1=0, select bank0
  5957  0D32  00B0               	movwf	??_Marcador
  5958  0D33  0830               	movf	??_Marcador,w
  5959  0D34  00AC               	movwf	enviardato@dato
  5960  0D35  3005               	movlw	5
  5961  0D36  160A  118A  2146  120A  158A  	fcall	_enviardato
  5962                           
  5963                           ;Trayectoria.c: 955: enviardato(0x04,0x40);
  5964  0D3B  3040               	movlw	64
  5965  0D3C  1283               	bcf	3,5	;RP0=0, select bank0
  5966  0D3D  1303               	bcf	3,6	;RP1=0, select bank0
  5967  0D3E  00B0               	movwf	??_Marcador
  5968  0D3F  0830               	movf	??_Marcador,w
  5969  0D40  00AC               	movwf	enviardato@dato
  5970  0D41  3004               	movlw	4
  5971  0D42  160A  118A  2146  120A  158A  	fcall	_enviardato
  5972                           
  5973                           ;Trayectoria.c: 956: enviardato(0x03,0b01111110);
  5974  0D47  307E               	movlw	126
  5975  0D48  1283               	bcf	3,5	;RP0=0, select bank0
  5976  0D49  1303               	bcf	3,6	;RP1=0, select bank0
  5977  0D4A  00B0               	movwf	??_Marcador
  5978  0D4B  0830               	movf	??_Marcador,w
  5979  0D4C  00AC               	movwf	enviardato@dato
  5980  0D4D  3003               	movlw	3
  5981  0D4E  160A  118A  2146  120A  158A  	fcall	_enviardato
  5982                           
  5983                           ;Trayectoria.c: 957: break;
  5984  0D53  2FCE               	goto	l2452
  5985  0D54                     l2424:	
  5986                           ;Trayectoria.c: 958: case 8:
  5987                           
  5988                           
  5989                           ;Trayectoria.c: 959: enviardato(0x06,0b01111110);
  5990  0D54  307E               	movlw	126
  5991  0D55  1283               	bcf	3,5	;RP0=0, select bank0
  5992  0D56  1303               	bcf	3,6	;RP1=0, select bank0
  5993  0D57  00B0               	movwf	??_Marcador
  5994  0D58  0830               	movf	??_Marcador,w
  5995  0D59  00AC               	movwf	enviardato@dato
  5996  0D5A  3006               	movlw	6
  5997  0D5B  160A  118A  2146  120A  158A  	fcall	_enviardato
  5998                           
  5999                           ;Trayectoria.c: 960: enviardato(0x05,0b01010010);
  6000  0D60  3052               	movlw	82
  6001  0D61  1283               	bcf	3,5	;RP0=0, select bank0
  6002  0D62  1303               	bcf	3,6	;RP1=0, select bank0
  6003  0D63  00B0               	movwf	??_Marcador
  6004  0D64  0830               	movf	??_Marcador,w
  6005  0D65  00AC               	movwf	enviardato@dato
  6006  0D66  3005               	movlw	5
  6007  0D67  160A  118A  2146  120A  158A  	fcall	_enviardato
  6008                           
  6009                           ;Trayectoria.c: 961: enviardato(0x04,0b01010010);
  6010  0D6C  3052               	movlw	82
  6011  0D6D  1283               	bcf	3,5	;RP0=0, select bank0
  6012  0D6E  1303               	bcf	3,6	;RP1=0, select bank0
  6013  0D6F  00B0               	movwf	??_Marcador
  6014  0D70  0830               	movf	??_Marcador,w
  6015  0D71  00AC               	movwf	enviardato@dato
  6016  0D72  3004               	movlw	4
  6017  0D73  160A  118A  2146  120A  158A  	fcall	_enviardato
  6018                           
  6019                           ;Trayectoria.c: 962: enviardato(0x03,0b01111110);
  6020  0D78  307E               	movlw	126
  6021  0D79  1283               	bcf	3,5	;RP0=0, select bank0
  6022  0D7A  1303               	bcf	3,6	;RP1=0, select bank0
  6023  0D7B  00B0               	movwf	??_Marcador
  6024  0D7C  0830               	movf	??_Marcador,w
  6025  0D7D  00AC               	movwf	enviardato@dato
  6026  0D7E  3003               	movlw	3
  6027  0D7F  160A  118A  2146  120A  158A  	fcall	_enviardato
  6028                           
  6029                           ;Trayectoria.c: 963: break;
  6030  0D84  2FCE               	goto	l2452
  6031  0D85                     l2426:	
  6032                           ;Trayectoria.c: 964: case 9:
  6033                           
  6034                           
  6035                           ;Trayectoria.c: 965: enviardato(0x06,0b01110000);
  6036  0D85  3070               	movlw	112
  6037  0D86  1283               	bcf	3,5	;RP0=0, select bank0
  6038  0D87  1303               	bcf	3,6	;RP1=0, select bank0
  6039  0D88  00B0               	movwf	??_Marcador
  6040  0D89  0830               	movf	??_Marcador,w
  6041  0D8A  00AC               	movwf	enviardato@dato
  6042  0D8B  3006               	movlw	6
  6043  0D8C  160A  118A  2146  120A  158A  	fcall	_enviardato
  6044                           
  6045                           ;Trayectoria.c: 966: enviardato(0x05,0b01010000);
  6046  0D91  3050               	movlw	80
  6047  0D92  1283               	bcf	3,5	;RP0=0, select bank0
  6048  0D93  1303               	bcf	3,6	;RP1=0, select bank0
  6049  0D94  00B0               	movwf	??_Marcador
  6050  0D95  0830               	movf	??_Marcador,w
  6051  0D96  00AC               	movwf	enviardato@dato
  6052  0D97  3005               	movlw	5
  6053  0D98  160A  118A  2146  120A  158A  	fcall	_enviardato
  6054                           
  6055                           ;Trayectoria.c: 967: enviardato(0x04,0b01010000);
  6056  0D9D  3050               	movlw	80
  6057  0D9E  1283               	bcf	3,5	;RP0=0, select bank0
  6058  0D9F  1303               	bcf	3,6	;RP1=0, select bank0
  6059  0DA0  00B0               	movwf	??_Marcador
  6060  0DA1  0830               	movf	??_Marcador,w
  6061  0DA2  00AC               	movwf	enviardato@dato
  6062  0DA3  3004               	movlw	4
  6063  0DA4  160A  118A  2146  120A  158A  	fcall	_enviardato
  6064                           
  6065                           ;Trayectoria.c: 968: enviardato(0x03,0b01111110);
  6066  0DA9  307E               	movlw	126
  6067  0DAA  1283               	bcf	3,5	;RP0=0, select bank0
  6068  0DAB  1303               	bcf	3,6	;RP1=0, select bank0
  6069  0DAC  00B0               	movwf	??_Marcador
  6070  0DAD  0830               	movf	??_Marcador,w
  6071  0DAE  00AC               	movwf	enviardato@dato
  6072  0DAF  3003               	movlw	3
  6073  0DB0  160A  118A  2146  120A  158A  	fcall	_enviardato
  6074                           
  6075                           ;Trayectoria.c: 969: break;
  6076  0DB5  2FCE               	goto	l2452
  6077  0DB6                     l2428:	
  6078                           ;Trayectoria.c: 970: case 10:
  6079                           
  6080                           
  6081                           ;Trayectoria.c: 971: enviardato(0x06,0b01111110);
  6082  0DB6  307E               	movlw	126
  6083  0DB7  1283               	bcf	3,5	;RP0=0, select bank0
  6084  0DB8  1303               	bcf	3,6	;RP1=0, select bank0
  6085  0DB9  00B0               	movwf	??_Marcador
  6086  0DBA  0830               	movf	??_Marcador,w
  6087  0DBB  00AC               	movwf	enviardato@dato
  6088  0DBC  3006               	movlw	6
  6089  0DBD  160A  118A  2146  120A  158A  	fcall	_enviardato
  6090                           
  6091                           ;Trayectoria.c: 972: enviardato(0x04,0b01111110);
  6092  0DC2  307E               	movlw	126
  6093  0DC3  1283               	bcf	3,5	;RP0=0, select bank0
  6094  0DC4  1303               	bcf	3,6	;RP1=0, select bank0
  6095  0DC5  00B0               	movwf	??_Marcador
  6096  0DC6  0830               	movf	??_Marcador,w
  6097  0DC7  00AC               	movwf	enviardato@dato
  6098  0DC8  3004               	movlw	4
  6099  0DC9  160A  118A  2146  120A  158A  	fcall	_enviardato
  6100                           
  6101                           ;Trayectoria.c: 973: enviardato(0x03,0b01000010);
  6102  0DCE  3042               	movlw	66
  6103  0DCF  1283               	bcf	3,5	;RP0=0, select bank0
  6104  0DD0  1303               	bcf	3,6	;RP1=0, select bank0
  6105  0DD1  00B0               	movwf	??_Marcador
  6106  0DD2  0830               	movf	??_Marcador,w
  6107  0DD3  00AC               	movwf	enviardato@dato
  6108  0DD4  3003               	movlw	3
  6109  0DD5  160A  118A  2146  120A  158A  	fcall	_enviardato
  6110                           
  6111                           ;Trayectoria.c: 974: enviardato(0x02,0b01111110);
  6112  0DDA  307E               	movlw	126
  6113  0DDB  1283               	bcf	3,5	;RP0=0, select bank0
  6114  0DDC  1303               	bcf	3,6	;RP1=0, select bank0
  6115  0DDD  00B0               	movwf	??_Marcador
  6116  0DDE  0830               	movf	??_Marcador,w
  6117  0DDF  00AC               	movwf	enviardato@dato
  6118  0DE0  3002               	movlw	2
  6119  0DE1  160A  118A  2146  120A  158A  	fcall	_enviardato
  6120                           
  6121                           ;Trayectoria.c: 977: }
  6122                           
  6123                           ;Trayectoria.c: 976: default:;
  6124                           
  6125                           ;Trayectoria.c: 975: break;
  6126  0DE6  2FCE               	goto	l2452
  6127  0DE7                     l2430:	
  6128  0DE7  1283               	bcf	3,5	;RP0=0, select bank0
  6129  0DE8  1303               	bcf	3,6	;RP1=0, select bank0
  6130  0DE9  0856               	movf	_puntaje1,w
  6131                           
  6132                           ; Switch size 1, requested type "space"
  6133                           ; Number of cases is 10, Range of values is 1 to 10
  6134                           ; switch strategies available:
  6135                           ; Name         Instructions Cycles
  6136                           ; simple_byte           31    16 (average)
  6137                           ; direct_byte           41    11 (fixed)
  6138                           ; jumptable            263     9 (fixed)
  6139                           ;	Chosen strategy is simple_byte
  6140  0DEA  3A01               	xorlw	1	; case 1
  6141  0DEB  1903               	skipnz
  6142  0DEC  2C21               	goto	l2410
  6143  0DED  3A03               	xorlw	3	; case 2
  6144  0DEE  1903               	skipnz
  6145  0DEF  2C2E               	goto	l2412
  6146  0DF0  3A01               	xorlw	1	; case 3
  6147  0DF1  1903               	skipnz
  6148  0DF2  2C5F               	goto	l2414
  6149  0DF3  3A07               	xorlw	7	; case 4
  6150  0DF4  1903               	skipnz
  6151  0DF5  2C90               	goto	l2416
  6152  0DF6  3A01               	xorlw	1	; case 5
  6153  0DF7  1903               	skipnz
  6154  0DF8  2CC1               	goto	l2418
  6155  0DF9  3A03               	xorlw	3	; case 6
  6156  0DFA  1903               	skipnz
  6157  0DFB  2CF2               	goto	l2420
  6158  0DFC  3A01               	xorlw	1	; case 7
  6159  0DFD  1903               	skipnz
  6160  0DFE  2D23               	goto	l2422
  6161  0DFF  3A0F               	xorlw	15	; case 8
  6162  0E00  1903               	skipnz
  6163  0E01  2D54               	goto	l2424
  6164  0E02  3A01               	xorlw	1	; case 9
  6165  0E03  1903               	skipnz
  6166  0E04  2D85               	goto	l2426
  6167  0E05  3A03               	xorlw	3	; case 10
  6168  0E06  1903               	skipnz
  6169  0E07  2DB6               	goto	l2428
  6170  0E08  2FCE               	goto	l2452
  6171                           
  6172                           ;Trayectoria.c: 978: switch (puntaje2)
  6173  0E09  2FCE               	goto	l2452
  6174  0E0A                     l2432:	
  6175                           ;Trayectoria.c: 979: {
  6176                           ;Trayectoria.c: 980: case 1:
  6177                           
  6178                           
  6179                           ;Trayectoria.c: 981: enviardato2(0x05,0b01111110);
  6180  0E0A  307E               	movlw	126
  6181  0E0B  00B0               	movwf	??_Marcador
  6182  0E0C  0830               	movf	??_Marcador,w
  6183  0E0D  00AC               	movwf	enviardato2@dato
  6184  0E0E  3005               	movlw	5
  6185  0E0F  160A  118A  2167  120A  158A  	fcall	_enviardato2
  6186                           
  6187                           ;Trayectoria.c: 982: break;
  6188  0E14  2FF0               	goto	l2454
  6189  0E15                     l2434:	
  6190                           ;Trayectoria.c: 983: case 2:
  6191                           
  6192                           
  6193                           ;Trayectoria.c: 984: enviardato2(0x06,0b01000110);
  6194  0E15  3046               	movlw	70
  6195  0E16  1283               	bcf	3,5	;RP0=0, select bank0
  6196  0E17  1303               	bcf	3,6	;RP1=0, select bank0
  6197  0E18  00B0               	movwf	??_Marcador
  6198  0E19  0830               	movf	??_Marcador,w
  6199  0E1A  00AC               	movwf	enviardato2@dato
  6200  0E1B  3006               	movlw	6
  6201  0E1C  160A  118A  2167  120A  158A  	fcall	_enviardato2
  6202                           
  6203                           ;Trayectoria.c: 985: enviardato2(0x05,0b01001010);
  6204  0E21  304A               	movlw	74
  6205  0E22  1283               	bcf	3,5	;RP0=0, select bank0
  6206  0E23  1303               	bcf	3,6	;RP1=0, select bank0
  6207  0E24  00B0               	movwf	??_Marcador
  6208  0E25  0830               	movf	??_Marcador,w
  6209  0E26  00AC               	movwf	enviardato2@dato
  6210  0E27  3005               	movlw	5
  6211  0E28  160A  118A  2167  120A  158A  	fcall	_enviardato2
  6212                           
  6213                           ;Trayectoria.c: 986: enviardato2(0x04,0b01010010);
  6214  0E2D  3052               	movlw	82
  6215  0E2E  1283               	bcf	3,5	;RP0=0, select bank0
  6216  0E2F  1303               	bcf	3,6	;RP1=0, select bank0
  6217  0E30  00B0               	movwf	??_Marcador
  6218  0E31  0830               	movf	??_Marcador,w
  6219  0E32  00AC               	movwf	enviardato2@dato
  6220  0E33  3004               	movlw	4
  6221  0E34  160A  118A  2167  120A  158A  	fcall	_enviardato2
  6222                           
  6223                           ;Trayectoria.c: 987: enviardato2(0x03,0b01100010);
  6224  0E39  3062               	movlw	98
  6225  0E3A  1283               	bcf	3,5	;RP0=0, select bank0
  6226  0E3B  1303               	bcf	3,6	;RP1=0, select bank0
  6227  0E3C  00B0               	movwf	??_Marcador
  6228  0E3D  0830               	movf	??_Marcador,w
  6229  0E3E  00AC               	movwf	enviardato2@dato
  6230  0E3F  3003               	movlw	3
  6231  0E40  160A  118A  2167  120A  158A  	fcall	_enviardato2
  6232                           
  6233                           ;Trayectoria.c: 988: break;
  6234  0E45  2FF0               	goto	l2454
  6235  0E46                     l2436:	
  6236                           ;Trayectoria.c: 989: case 3:
  6237                           
  6238                           
  6239                           ;Trayectoria.c: 990: enviardato2(0x06,0b00101010);
  6240  0E46  302A               	movlw	42
  6241  0E47  1283               	bcf	3,5	;RP0=0, select bank0
  6242  0E48  1303               	bcf	3,6	;RP1=0, select bank0
  6243  0E49  00B0               	movwf	??_Marcador
  6244  0E4A  0830               	movf	??_Marcador,w
  6245  0E4B  00AC               	movwf	enviardato2@dato
  6246  0E4C  3006               	movlw	6
  6247  0E4D  160A  118A  2167  120A  158A  	fcall	_enviardato2
  6248                           
  6249                           ;Trayectoria.c: 991: enviardato2(0x05,0b00101010);
  6250  0E52  302A               	movlw	42
  6251  0E53  1283               	bcf	3,5	;RP0=0, select bank0
  6252  0E54  1303               	bcf	3,6	;RP1=0, select bank0
  6253  0E55  00B0               	movwf	??_Marcador
  6254  0E56  0830               	movf	??_Marcador,w
  6255  0E57  00AC               	movwf	enviardato2@dato
  6256  0E58  3005               	movlw	5
  6257  0E59  160A  118A  2167  120A  158A  	fcall	_enviardato2
  6258                           
  6259                           ;Trayectoria.c: 992: enviardato2(0x04,0b00101010);
  6260  0E5E  302A               	movlw	42
  6261  0E5F  1283               	bcf	3,5	;RP0=0, select bank0
  6262  0E60  1303               	bcf	3,6	;RP1=0, select bank0
  6263  0E61  00B0               	movwf	??_Marcador
  6264  0E62  0830               	movf	??_Marcador,w
  6265  0E63  00AC               	movwf	enviardato2@dato
  6266  0E64  3004               	movlw	4
  6267  0E65  160A  118A  2167  120A  158A  	fcall	_enviardato2
  6268                           
  6269                           ;Trayectoria.c: 993: enviardato2(0x03,0b01111110);
  6270  0E6A  307E               	movlw	126
  6271  0E6B  1283               	bcf	3,5	;RP0=0, select bank0
  6272  0E6C  1303               	bcf	3,6	;RP1=0, select bank0
  6273  0E6D  00B0               	movwf	??_Marcador
  6274  0E6E  0830               	movf	??_Marcador,w
  6275  0E6F  00AC               	movwf	enviardato2@dato
  6276  0E70  3003               	movlw	3
  6277  0E71  160A  118A  2167  120A  158A  	fcall	_enviardato2
  6278                           
  6279                           ;Trayectoria.c: 994: break;
  6280  0E76  2FF0               	goto	l2454
  6281  0E77                     l2438:	
  6282                           ;Trayectoria.c: 995: case 4:
  6283                           
  6284                           
  6285                           ;Trayectoria.c: 996: enviardato2(0x06,0b01111000);
  6286  0E77  3078               	movlw	120
  6287  0E78  1283               	bcf	3,5	;RP0=0, select bank0
  6288  0E79  1303               	bcf	3,6	;RP1=0, select bank0
  6289  0E7A  00B0               	movwf	??_Marcador
  6290  0E7B  0830               	movf	??_Marcador,w
  6291  0E7C  00AC               	movwf	enviardato2@dato
  6292  0E7D  3006               	movlw	6
  6293  0E7E  160A  118A  2167  120A  158A  	fcall	_enviardato2
  6294                           
  6295                           ;Trayectoria.c: 997: enviardato2(0x05,0x08);
  6296  0E83  3008               	movlw	8
  6297  0E84  1283               	bcf	3,5	;RP0=0, select bank0
  6298  0E85  1303               	bcf	3,6	;RP1=0, select bank0
  6299  0E86  00B0               	movwf	??_Marcador
  6300  0E87  0830               	movf	??_Marcador,w
  6301  0E88  00AC               	movwf	enviardato2@dato
  6302  0E89  3005               	movlw	5
  6303  0E8A  160A  118A  2167  120A  158A  	fcall	_enviardato2
  6304                           
  6305                           ;Trayectoria.c: 998: enviardato2(0x04,0x08);
  6306  0E8F  3008               	movlw	8
  6307  0E90  1283               	bcf	3,5	;RP0=0, select bank0
  6308  0E91  1303               	bcf	3,6	;RP1=0, select bank0
  6309  0E92  00B0               	movwf	??_Marcador
  6310  0E93  0830               	movf	??_Marcador,w
  6311  0E94  00AC               	movwf	enviardato2@dato
  6312  0E95  3004               	movlw	4
  6313  0E96  160A  118A  2167  120A  158A  	fcall	_enviardato2
  6314                           
  6315                           ;Trayectoria.c: 999: enviardato2(0x03,0b01111110);
  6316  0E9B  307E               	movlw	126
  6317  0E9C  1283               	bcf	3,5	;RP0=0, select bank0
  6318  0E9D  1303               	bcf	3,6	;RP1=0, select bank0
  6319  0E9E  00B0               	movwf	??_Marcador
  6320  0E9F  0830               	movf	??_Marcador,w
  6321  0EA0  00AC               	movwf	enviardato2@dato
  6322  0EA1  3003               	movlw	3
  6323  0EA2  160A  118A  2167  120A  158A  	fcall	_enviardato2
  6324                           
  6325                           ;Trayectoria.c: 1000: break;
  6326  0EA7  2FF0               	goto	l2454
  6327  0EA8                     l2440:	
  6328                           ;Trayectoria.c: 1001: case 5:
  6329                           
  6330                           
  6331                           ;Trayectoria.c: 1002: enviardato2(0x06,0b01110010);
  6332  0EA8  3072               	movlw	114
  6333  0EA9  1283               	bcf	3,5	;RP0=0, select bank0
  6334  0EAA  1303               	bcf	3,6	;RP1=0, select bank0
  6335  0EAB  00B0               	movwf	??_Marcador
  6336  0EAC  0830               	movf	??_Marcador,w
  6337  0EAD  00AC               	movwf	enviardato2@dato
  6338  0EAE  3006               	movlw	6
  6339  0EAF  160A  118A  2167  120A  158A  	fcall	_enviardato2
  6340                           
  6341                           ;Trayectoria.c: 1003: enviardato2(0x05,0b01010010);
  6342  0EB4  3052               	movlw	82
  6343  0EB5  1283               	bcf	3,5	;RP0=0, select bank0
  6344  0EB6  1303               	bcf	3,6	;RP1=0, select bank0
  6345  0EB7  00B0               	movwf	??_Marcador
  6346  0EB8  0830               	movf	??_Marcador,w
  6347  0EB9  00AC               	movwf	enviardato2@dato
  6348  0EBA  3005               	movlw	5
  6349  0EBB  160A  118A  2167  120A  158A  	fcall	_enviardato2
  6350                           
  6351                           ;Trayectoria.c: 1004: enviardato2(0x04,0b01010010);
  6352  0EC0  3052               	movlw	82
  6353  0EC1  1283               	bcf	3,5	;RP0=0, select bank0
  6354  0EC2  1303               	bcf	3,6	;RP1=0, select bank0
  6355  0EC3  00B0               	movwf	??_Marcador
  6356  0EC4  0830               	movf	??_Marcador,w
  6357  0EC5  00AC               	movwf	enviardato2@dato
  6358  0EC6  3004               	movlw	4
  6359  0EC7  160A  118A  2167  120A  158A  	fcall	_enviardato2
  6360                           
  6361                           ;Trayectoria.c: 1005: enviardato2(0x03,0b01011110);
  6362  0ECC  305E               	movlw	94
  6363  0ECD  1283               	bcf	3,5	;RP0=0, select bank0
  6364  0ECE  1303               	bcf	3,6	;RP1=0, select bank0
  6365  0ECF  00B0               	movwf	??_Marcador
  6366  0ED0  0830               	movf	??_Marcador,w
  6367  0ED1  00AC               	movwf	enviardato2@dato
  6368  0ED2  3003               	movlw	3
  6369  0ED3  160A  118A  2167  120A  158A  	fcall	_enviardato2
  6370                           
  6371                           ;Trayectoria.c: 1006: break;
  6372  0ED8  2FF0               	goto	l2454
  6373  0ED9                     l2442:	
  6374                           ;Trayectoria.c: 1007: case 6:
  6375                           
  6376                           
  6377                           ;Trayectoria.c: 1008: enviardato2(0x06,0b01111110);
  6378  0ED9  307E               	movlw	126
  6379  0EDA  1283               	bcf	3,5	;RP0=0, select bank0
  6380  0EDB  1303               	bcf	3,6	;RP1=0, select bank0
  6381  0EDC  00B0               	movwf	??_Marcador
  6382  0EDD  0830               	movf	??_Marcador,w
  6383  0EDE  00AC               	movwf	enviardato2@dato
  6384  0EDF  3006               	movlw	6
  6385  0EE0  160A  118A  2167  120A  158A  	fcall	_enviardato2
  6386                           
  6387                           ;Trayectoria.c: 1009: enviardato2(0x05,0b01010010);
  6388  0EE5  3052               	movlw	82
  6389  0EE6  1283               	bcf	3,5	;RP0=0, select bank0
  6390  0EE7  1303               	bcf	3,6	;RP1=0, select bank0
  6391  0EE8  00B0               	movwf	??_Marcador
  6392  0EE9  0830               	movf	??_Marcador,w
  6393  0EEA  00AC               	movwf	enviardato2@dato
  6394  0EEB  3005               	movlw	5
  6395  0EEC  160A  118A  2167  120A  158A  	fcall	_enviardato2
  6396                           
  6397                           ;Trayectoria.c: 1010: enviardato2(0x04,0b01010010);
  6398  0EF1  3052               	movlw	82
  6399  0EF2  1283               	bcf	3,5	;RP0=0, select bank0
  6400  0EF3  1303               	bcf	3,6	;RP1=0, select bank0
  6401  0EF4  00B0               	movwf	??_Marcador
  6402  0EF5  0830               	movf	??_Marcador,w
  6403  0EF6  00AC               	movwf	enviardato2@dato
  6404  0EF7  3004               	movlw	4
  6405  0EF8  160A  118A  2167  120A  158A  	fcall	_enviardato2
  6406                           
  6407                           ;Trayectoria.c: 1011: enviardato2(0x03,0b01011110);
  6408  0EFD  305E               	movlw	94
  6409  0EFE  1283               	bcf	3,5	;RP0=0, select bank0
  6410  0EFF  1303               	bcf	3,6	;RP1=0, select bank0
  6411  0F00  00B0               	movwf	??_Marcador
  6412  0F01  0830               	movf	??_Marcador,w
  6413  0F02  00AC               	movwf	enviardato2@dato
  6414  0F03  3003               	movlw	3
  6415  0F04  160A  118A  2167  120A  158A  	fcall	_enviardato2
  6416                           
  6417                           ;Trayectoria.c: 1012: break;
  6418  0F09  2FF0               	goto	l2454
  6419  0F0A                     l2444:	
  6420                           ;Trayectoria.c: 1013: case 7:
  6421                           
  6422                           
  6423                           ;Trayectoria.c: 1014: enviardato2(0x06,0x40);
  6424  0F0A  3040               	movlw	64
  6425  0F0B  1283               	bcf	3,5	;RP0=0, select bank0
  6426  0F0C  1303               	bcf	3,6	;RP1=0, select bank0
  6427  0F0D  00B0               	movwf	??_Marcador
  6428  0F0E  0830               	movf	??_Marcador,w
  6429  0F0F  00AC               	movwf	enviardato2@dato
  6430  0F10  3006               	movlw	6
  6431  0F11  160A  118A  2167  120A  158A  	fcall	_enviardato2
  6432                           
  6433                           ;Trayectoria.c: 1015: enviardato2(0x05,0x40);
  6434  0F16  3040               	movlw	64
  6435  0F17  1283               	bcf	3,5	;RP0=0, select bank0
  6436  0F18  1303               	bcf	3,6	;RP1=0, select bank0
  6437  0F19  00B0               	movwf	??_Marcador
  6438  0F1A  0830               	movf	??_Marcador,w
  6439  0F1B  00AC               	movwf	enviardato2@dato
  6440  0F1C  3005               	movlw	5
  6441  0F1D  160A  118A  2167  120A  158A  	fcall	_enviardato2
  6442                           
  6443                           ;Trayectoria.c: 1016: enviardato2(0x04,0x40);
  6444  0F22  3040               	movlw	64
  6445  0F23  1283               	bcf	3,5	;RP0=0, select bank0
  6446  0F24  1303               	bcf	3,6	;RP1=0, select bank0
  6447  0F25  00B0               	movwf	??_Marcador
  6448  0F26  0830               	movf	??_Marcador,w
  6449  0F27  00AC               	movwf	enviardato2@dato
  6450  0F28  3004               	movlw	4
  6451  0F29  160A  118A  2167  120A  158A  	fcall	_enviardato2
  6452                           
  6453                           ;Trayectoria.c: 1017: enviardato2(0x03,0b01111110);
  6454  0F2E  307E               	movlw	126
  6455  0F2F  1283               	bcf	3,5	;RP0=0, select bank0
  6456  0F30  1303               	bcf	3,6	;RP1=0, select bank0
  6457  0F31  00B0               	movwf	??_Marcador
  6458  0F32  0830               	movf	??_Marcador,w
  6459  0F33  00AC               	movwf	enviardato2@dato
  6460  0F34  3003               	movlw	3
  6461  0F35  160A  118A  2167  120A  158A  	fcall	_enviardato2
  6462                           
  6463                           ;Trayectoria.c: 1018: break;
  6464  0F3A  2FF0               	goto	l2454
  6465  0F3B                     l2446:	
  6466                           ;Trayectoria.c: 1019: case 8:
  6467                           
  6468                           
  6469                           ;Trayectoria.c: 1020: enviardato2(0x06,0b01111110);
  6470  0F3B  307E               	movlw	126
  6471  0F3C  1283               	bcf	3,5	;RP0=0, select bank0
  6472  0F3D  1303               	bcf	3,6	;RP1=0, select bank0
  6473  0F3E  00B0               	movwf	??_Marcador
  6474  0F3F  0830               	movf	??_Marcador,w
  6475  0F40  00AC               	movwf	enviardato2@dato
  6476  0F41  3006               	movlw	6
  6477  0F42  160A  118A  2167  120A  158A  	fcall	_enviardato2
  6478                           
  6479                           ;Trayectoria.c: 1021: enviardato2(0x05,0b01010010);
  6480  0F47  3052               	movlw	82
  6481  0F48  1283               	bcf	3,5	;RP0=0, select bank0
  6482  0F49  1303               	bcf	3,6	;RP1=0, select bank0
  6483  0F4A  00B0               	movwf	??_Marcador
  6484  0F4B  0830               	movf	??_Marcador,w
  6485  0F4C  00AC               	movwf	enviardato2@dato
  6486  0F4D  3005               	movlw	5
  6487  0F4E  160A  118A  2167  120A  158A  	fcall	_enviardato2
  6488                           
  6489                           ;Trayectoria.c: 1022: enviardato2(0x04,0b01010010);
  6490  0F53  3052               	movlw	82
  6491  0F54  1283               	bcf	3,5	;RP0=0, select bank0
  6492  0F55  1303               	bcf	3,6	;RP1=0, select bank0
  6493  0F56  00B0               	movwf	??_Marcador
  6494  0F57  0830               	movf	??_Marcador,w
  6495  0F58  00AC               	movwf	enviardato2@dato
  6496  0F59  3004               	movlw	4
  6497  0F5A  160A  118A  2167  120A  158A  	fcall	_enviardato2
  6498                           
  6499                           ;Trayectoria.c: 1023: enviardato2(0x03,0b01111110);
  6500  0F5F  307E               	movlw	126
  6501  0F60  1283               	bcf	3,5	;RP0=0, select bank0
  6502  0F61  1303               	bcf	3,6	;RP1=0, select bank0
  6503  0F62  00B0               	movwf	??_Marcador
  6504  0F63  0830               	movf	??_Marcador,w
  6505  0F64  00AC               	movwf	enviardato2@dato
  6506  0F65  3003               	movlw	3
  6507  0F66  160A  118A  2167  120A  158A  	fcall	_enviardato2
  6508                           
  6509                           ;Trayectoria.c: 1024: break;
  6510  0F6B  2FF0               	goto	l2454
  6511  0F6C                     l2448:	
  6512                           ;Trayectoria.c: 1025: case 9:
  6513                           
  6514                           
  6515                           ;Trayectoria.c: 1026: enviardato2(0x06,0b01110000);
  6516  0F6C  3070               	movlw	112
  6517  0F6D  1283               	bcf	3,5	;RP0=0, select bank0
  6518  0F6E  1303               	bcf	3,6	;RP1=0, select bank0
  6519  0F6F  00B0               	movwf	??_Marcador
  6520  0F70  0830               	movf	??_Marcador,w
  6521  0F71  00AC               	movwf	enviardato2@dato
  6522  0F72  3006               	movlw	6
  6523  0F73  160A  118A  2167  120A  158A  	fcall	_enviardato2
  6524                           
  6525                           ;Trayectoria.c: 1027: enviardato2(0x05,0b01010000);
  6526  0F78  3050               	movlw	80
  6527  0F79  1283               	bcf	3,5	;RP0=0, select bank0
  6528  0F7A  1303               	bcf	3,6	;RP1=0, select bank0
  6529  0F7B  00B0               	movwf	??_Marcador
  6530  0F7C  0830               	movf	??_Marcador,w
  6531  0F7D  00AC               	movwf	enviardato2@dato
  6532  0F7E  3005               	movlw	5
  6533  0F7F  160A  118A  2167  120A  158A  	fcall	_enviardato2
  6534                           
  6535                           ;Trayectoria.c: 1028: enviardato2(0x04,0b01010000);
  6536  0F84  3050               	movlw	80
  6537  0F85  1283               	bcf	3,5	;RP0=0, select bank0
  6538  0F86  1303               	bcf	3,6	;RP1=0, select bank0
  6539  0F87  00B0               	movwf	??_Marcador
  6540  0F88  0830               	movf	??_Marcador,w
  6541  0F89  00AC               	movwf	enviardato2@dato
  6542  0F8A  3004               	movlw	4
  6543  0F8B  160A  118A  2167  120A  158A  	fcall	_enviardato2
  6544                           
  6545                           ;Trayectoria.c: 1029: enviardato2(0x03,0b01111110);
  6546  0F90  307E               	movlw	126
  6547  0F91  1283               	bcf	3,5	;RP0=0, select bank0
  6548  0F92  1303               	bcf	3,6	;RP1=0, select bank0
  6549  0F93  00B0               	movwf	??_Marcador
  6550  0F94  0830               	movf	??_Marcador,w
  6551  0F95  00AC               	movwf	enviardato2@dato
  6552  0F96  3003               	movlw	3
  6553  0F97  160A  118A  2167  120A  158A  	fcall	_enviardato2
  6554                           
  6555                           ;Trayectoria.c: 1030: break;
  6556  0F9C  2FF0               	goto	l2454
  6557  0F9D                     l2450:	
  6558                           ;Trayectoria.c: 1031: case 10:
  6559                           
  6560                           
  6561                           ;Trayectoria.c: 1032: enviardato2(0x07,0b01111110);
  6562  0F9D  307E               	movlw	126
  6563  0F9E  1283               	bcf	3,5	;RP0=0, select bank0
  6564  0F9F  1303               	bcf	3,6	;RP1=0, select bank0
  6565  0FA0  00B0               	movwf	??_Marcador
  6566  0FA1  0830               	movf	??_Marcador,w
  6567  0FA2  00AC               	movwf	enviardato2@dato
  6568  0FA3  3007               	movlw	7
  6569  0FA4  160A  118A  2167  120A  158A  	fcall	_enviardato2
  6570                           
  6571                           ;Trayectoria.c: 1033: enviardato2(0x05,0b01111110);
  6572  0FA9  307E               	movlw	126
  6573  0FAA  1283               	bcf	3,5	;RP0=0, select bank0
  6574  0FAB  1303               	bcf	3,6	;RP1=0, select bank0
  6575  0FAC  00B0               	movwf	??_Marcador
  6576  0FAD  0830               	movf	??_Marcador,w
  6577  0FAE  00AC               	movwf	enviardato2@dato
  6578  0FAF  3005               	movlw	5
  6579  0FB0  160A  118A  2167  120A  158A  	fcall	_enviardato2
  6580                           
  6581                           ;Trayectoria.c: 1034: enviardato2(0x04,0b01000010);
  6582  0FB5  3042               	movlw	66
  6583  0FB6  1283               	bcf	3,5	;RP0=0, select bank0
  6584  0FB7  1303               	bcf	3,6	;RP1=0, select bank0
  6585  0FB8  00B0               	movwf	??_Marcador
  6586  0FB9  0830               	movf	??_Marcador,w
  6587  0FBA  00AC               	movwf	enviardato2@dato
  6588  0FBB  3004               	movlw	4
  6589  0FBC  160A  118A  2167  120A  158A  	fcall	_enviardato2
  6590                           
  6591                           ;Trayectoria.c: 1035: enviardato2(0x03,0b01111110);
  6592  0FC1  307E               	movlw	126
  6593  0FC2  1283               	bcf	3,5	;RP0=0, select bank0
  6594  0FC3  1303               	bcf	3,6	;RP1=0, select bank0
  6595  0FC4  00B0               	movwf	??_Marcador
  6596  0FC5  0830               	movf	??_Marcador,w
  6597  0FC6  00AC               	movwf	enviardato2@dato
  6598  0FC7  3003               	movlw	3
  6599  0FC8  160A  118A  2167  120A  158A  	fcall	_enviardato2
  6600                           
  6601                           ;Trayectoria.c: 1038: }
  6602                           
  6603                           ;Trayectoria.c: 1037: default:;
  6604                           
  6605                           ;Trayectoria.c: 1036: break;
  6606  0FCD  2FF0               	goto	l2454
  6607  0FCE                     l2452:	
  6608  0FCE  1283               	bcf	3,5	;RP0=0, select bank0
  6609  0FCF  1303               	bcf	3,6	;RP1=0, select bank0
  6610  0FD0  0855               	movf	_puntaje2,w
  6611                           
  6612                           ; Switch size 1, requested type "space"
  6613                           ; Number of cases is 10, Range of values is 1 to 10
  6614                           ; switch strategies available:
  6615                           ; Name         Instructions Cycles
  6616                           ; simple_byte           31    16 (average)
  6617                           ; direct_byte           41    11 (fixed)
  6618                           ; jumptable            263     9 (fixed)
  6619                           ;	Chosen strategy is simple_byte
  6620  0FD1  3A01               	xorlw	1	; case 1
  6621  0FD2  1903               	skipnz
  6622  0FD3  2E0A               	goto	l2432
  6623  0FD4  3A03               	xorlw	3	; case 2
  6624  0FD5  1903               	skipnz
  6625  0FD6  2E15               	goto	l2434
  6626  0FD7  3A01               	xorlw	1	; case 3
  6627  0FD8  1903               	skipnz
  6628  0FD9  2E46               	goto	l2436
  6629  0FDA  3A07               	xorlw	7	; case 4
  6630  0FDB  1903               	skipnz
  6631  0FDC  2E77               	goto	l2438
  6632  0FDD  3A01               	xorlw	1	; case 5
  6633  0FDE  1903               	skipnz
  6634  0FDF  2EA8               	goto	l2440
  6635  0FE0  3A03               	xorlw	3	; case 6
  6636  0FE1  1903               	skipnz
  6637  0FE2  2ED9               	goto	l2442
  6638  0FE3  3A01               	xorlw	1	; case 7
  6639  0FE4  1903               	skipnz
  6640  0FE5  2F0A               	goto	l2444
  6641  0FE6  3A0F               	xorlw	15	; case 8
  6642  0FE7  1903               	skipnz
  6643  0FE8  2F3B               	goto	l2446
  6644  0FE9  3A01               	xorlw	1	; case 9
  6645  0FEA  1903               	skipnz
  6646  0FEB  2F6C               	goto	l2448
  6647  0FEC  3A03               	xorlw	3	; case 10
  6648  0FED  1903               	skipnz
  6649  0FEE  2F9D               	goto	l2450
  6650  0FEF  2FF0               	goto	l2454
  6651  0FF0                     l2454:	
  6652                           
  6653                           ;Trayectoria.c: 1039: _delay((unsigned long)((1500)*(20000000/4000.0)));
  6654  0FF0  3027               	movlw	39
  6655  0FF1  1283               	bcf	3,5	;RP0=0, select bank0
  6656  0FF2  1303               	bcf	3,6	;RP1=0, select bank0
  6657  0FF3  00B2               	movwf	??_Marcador+2
  6658  0FF4  300D               	movlw	13
  6659  0FF5  00B1               	movwf	??_Marcador+1
  6660  0FF6  3025               	movlw	37
  6661  0FF7  00B0               	movwf	??_Marcador
  6662  0FF8                     u4417:	
  6663  0FF8  0BB0               	decfsz	??_Marcador,f
  6664  0FF9  2FF8               	goto	u4417
  6665  0FFA  0BB1               	decfsz	??_Marcador+1,f
  6666  0FFB  2FF8               	goto	u4417
  6667  0FFC  0BB2               	decfsz	??_Marcador+2,f
  6668  0FFD  2FF8               	goto	u4417
  6669  0FFE  2FFF               	nop2
  6670  0FFF  0008               	return
  6671  1000                     __end_of_Marcador:	
  6672                           
  6673                           	psect	text12
  6674  170D                     __ptext12:	
  6675 ;; *************** function _Gol *****************
  6676 ;; Defined at:
  6677 ;;		line 822 in file "Trayectoria.c"
  6678 ;; Parameters:    Size  Location     Type
  6679 ;;		None
  6680 ;; Auto vars:     Size  Location     Type
  6681 ;;		None
  6682 ;; Return value:  Size  Location     Type
  6683 ;;                  1    wreg      void 
  6684 ;; Registers used:
  6685 ;;		wreg, status,2, status,0, pclath, cstack
  6686 ;; Tracked objects:
  6687 ;;		On entry : 0/0
  6688 ;;		On exit  : 0/0
  6689 ;;		Unchanged: 0/0
  6690 ;; Data sizes:     COMMON   BANK0   BANK1   BANK3   BANK2
  6691 ;;      Params:         0       0       0       0       0
  6692 ;;      Locals:         0       0       0       0       0
  6693 ;;      Temps:          0       3       0       0       0
  6694 ;;      Totals:         0       3       0       0       0
  6695 ;;Total ram usage:        3 bytes
  6696 ;; Hardware stack levels used:    1
  6697 ;; Hardware stack levels required when called:    4
  6698 ;; This function calls:
  6699 ;;		_enviardato
  6700 ;;		_enviardato0
  6701 ;;		_enviardato2
  6702 ;; This function is called by:
  6703 ;;		_Juego
  6704 ;; This function uses a non-reentrant model
  6705 ;;
  6706                           
  6707                           
  6708                           ;psect for function _Gol
  6709  170D                     _Gol:	
  6710                           
  6711                           ;Trayectoria.c: 824: INTCONbits.RBIE=0;
  6712                           
  6713                           ;incstack = 0
  6714                           ; Regs used in _Gol: [wreg+status,2+status,0+pclath+cstack]
  6715  170D  118B               	bcf	11,3	;volatile
  6716                           
  6717                           ;Trayectoria.c: 826: enviardato0(0x01,0);
  6718  170E  1283               	bcf	3,5	;RP0=0, select bank0
  6719  170F  1303               	bcf	3,6	;RP1=0, select bank0
  6720  1710  01AC               	clrf	enviardato0@dato
  6721  1711  3001               	movlw	1
  6722  1712  120A  118A  27CA  160A  118A  	fcall	_enviardato0
  6723                           
  6724                           ;Trayectoria.c: 827: enviardato0(0x02,0);
  6725  1717  1283               	bcf	3,5	;RP0=0, select bank0
  6726  1718  1303               	bcf	3,6	;RP1=0, select bank0
  6727  1719  01AC               	clrf	enviardato0@dato
  6728  171A  3002               	movlw	2
  6729  171B  120A  118A  27CA  160A  118A  	fcall	_enviardato0
  6730                           
  6731                           ;Trayectoria.c: 828: enviardato0(0x03,0);
  6732  1720  1283               	bcf	3,5	;RP0=0, select bank0
  6733  1721  1303               	bcf	3,6	;RP1=0, select bank0
  6734  1722  01AC               	clrf	enviardato0@dato
  6735  1723  3003               	movlw	3
  6736  1724  120A  118A  27CA  160A  118A  	fcall	_enviardato0
  6737                           
  6738                           ;Trayectoria.c: 829: enviardato0(0x04,0);
  6739  1729  1283               	bcf	3,5	;RP0=0, select bank0
  6740  172A  1303               	bcf	3,6	;RP1=0, select bank0
  6741  172B  01AC               	clrf	enviardato0@dato
  6742  172C  3004               	movlw	4
  6743  172D  120A  118A  27CA  160A  118A  	fcall	_enviardato0
  6744                           
  6745                           ;Trayectoria.c: 830: enviardato0(0x05,0);
  6746  1732  1283               	bcf	3,5	;RP0=0, select bank0
  6747  1733  1303               	bcf	3,6	;RP1=0, select bank0
  6748  1734  01AC               	clrf	enviardato0@dato
  6749  1735  3005               	movlw	5
  6750  1736  120A  118A  27CA  160A  118A  	fcall	_enviardato0
  6751                           
  6752                           ;Trayectoria.c: 831: enviardato0(0x06,0);
  6753  173B  1283               	bcf	3,5	;RP0=0, select bank0
  6754  173C  1303               	bcf	3,6	;RP1=0, select bank0
  6755  173D  01AC               	clrf	enviardato0@dato
  6756  173E  3006               	movlw	6
  6757  173F  120A  118A  27CA  160A  118A  	fcall	_enviardato0
  6758                           
  6759                           ;Trayectoria.c: 832: enviardato0(0x07,0);
  6760  1744  1283               	bcf	3,5	;RP0=0, select bank0
  6761  1745  1303               	bcf	3,6	;RP1=0, select bank0
  6762  1746  01AC               	clrf	enviardato0@dato
  6763  1747  3007               	movlw	7
  6764  1748  120A  118A  27CA  160A  118A  	fcall	_enviardato0
  6765                           
  6766                           ;Trayectoria.c: 833: enviardato0(0x08,0);
  6767  174D  1283               	bcf	3,5	;RP0=0, select bank0
  6768  174E  1303               	bcf	3,6	;RP1=0, select bank0
  6769  174F  01AC               	clrf	enviardato0@dato
  6770  1750  3008               	movlw	8
  6771  1751  120A  118A  27CA  160A  118A  	fcall	_enviardato0
  6772                           
  6773                           ;Trayectoria.c: 836: enviardato2(0x07,0b01111110);
  6774  1756  307E               	movlw	126
  6775  1757  1283               	bcf	3,5	;RP0=0, select bank0
  6776  1758  1303               	bcf	3,6	;RP1=0, select bank0
  6777  1759  00B0               	movwf	??_Gol
  6778  175A  0830               	movf	??_Gol,w
  6779  175B  00AC               	movwf	enviardato2@dato
  6780  175C  3007               	movlw	7
  6781  175D  160A  118A  2167  160A  118A  	fcall	_enviardato2
  6782                           
  6783                           ;Trayectoria.c: 837: enviardato2(0x06,0b01000010);
  6784  1762  3042               	movlw	66
  6785  1763  1283               	bcf	3,5	;RP0=0, select bank0
  6786  1764  1303               	bcf	3,6	;RP1=0, select bank0
  6787  1765  00B0               	movwf	??_Gol
  6788  1766  0830               	movf	??_Gol,w
  6789  1767  00AC               	movwf	enviardato2@dato
  6790  1768  3006               	movlw	6
  6791  1769  160A  118A  2167  160A  118A  	fcall	_enviardato2
  6792                           
  6793                           ;Trayectoria.c: 838: enviardato2(0x05,0b01001010);
  6794  176E  304A               	movlw	74
  6795  176F  1283               	bcf	3,5	;RP0=0, select bank0
  6796  1770  1303               	bcf	3,6	;RP1=0, select bank0
  6797  1771  00B0               	movwf	??_Gol
  6798  1772  0830               	movf	??_Gol,w
  6799  1773  00AC               	movwf	enviardato2@dato
  6800  1774  3005               	movlw	5
  6801  1775  160A  118A  2167  160A  118A  	fcall	_enviardato2
  6802                           
  6803                           ;Trayectoria.c: 839: enviardato2(0x04,0b01001110);
  6804  177A  304E               	movlw	78
  6805  177B  1283               	bcf	3,5	;RP0=0, select bank0
  6806  177C  1303               	bcf	3,6	;RP1=0, select bank0
  6807  177D  00B0               	movwf	??_Gol
  6808  177E  0830               	movf	??_Gol,w
  6809  177F  00AC               	movwf	enviardato2@dato
  6810  1780  3004               	movlw	4
  6811  1781  160A  118A  2167  160A  118A  	fcall	_enviardato2
  6812                           
  6813                           ;Trayectoria.c: 840: enviardato2(0x03,0);
  6814  1786  1283               	bcf	3,5	;RP0=0, select bank0
  6815  1787  1303               	bcf	3,6	;RP1=0, select bank0
  6816  1788  01AC               	clrf	enviardato2@dato
  6817  1789  3003               	movlw	3
  6818  178A  160A  118A  2167  160A  118A  	fcall	_enviardato2
  6819                           
  6820                           ;Trayectoria.c: 843: enviardato2(0x02,0b01111110);
  6821  178F  307E               	movlw	126
  6822  1790  1283               	bcf	3,5	;RP0=0, select bank0
  6823  1791  1303               	bcf	3,6	;RP1=0, select bank0
  6824  1792  00B0               	movwf	??_Gol
  6825  1793  0830               	movf	??_Gol,w
  6826  1794  00AC               	movwf	enviardato2@dato
  6827  1795  3002               	movlw	2
  6828  1796  160A  118A  2167  160A  118A  	fcall	_enviardato2
  6829                           
  6830                           ;Trayectoria.c: 844: enviardato2(0x01,0b01000010);
  6831  179B  3042               	movlw	66
  6832  179C  1283               	bcf	3,5	;RP0=0, select bank0
  6833  179D  1303               	bcf	3,6	;RP1=0, select bank0
  6834  179E  00B0               	movwf	??_Gol
  6835  179F  0830               	movf	??_Gol,w
  6836  17A0  00AC               	movwf	enviardato2@dato
  6837  17A1  3001               	movlw	1
  6838  17A2  160A  118A  2167  160A  118A  	fcall	_enviardato2
  6839                           
  6840                           ;Trayectoria.c: 845: enviardato(0x08,0b01000010);
  6841  17A7  3042               	movlw	66
  6842  17A8  1283               	bcf	3,5	;RP0=0, select bank0
  6843  17A9  1303               	bcf	3,6	;RP1=0, select bank0
  6844  17AA  00B0               	movwf	??_Gol
  6845  17AB  0830               	movf	??_Gol,w
  6846  17AC  00AC               	movwf	enviardato@dato
  6847  17AD  3008               	movlw	8
  6848  17AE  160A  118A  2146  160A  118A  	fcall	_enviardato
  6849                           
  6850                           ;Trayectoria.c: 846: enviardato(0x07,0b01111110);
  6851  17B3  307E               	movlw	126
  6852  17B4  1283               	bcf	3,5	;RP0=0, select bank0
  6853  17B5  1303               	bcf	3,6	;RP1=0, select bank0
  6854  17B6  00B0               	movwf	??_Gol
  6855  17B7  0830               	movf	??_Gol,w
  6856  17B8  00AC               	movwf	enviardato@dato
  6857  17B9  3007               	movlw	7
  6858  17BA  160A  118A  2146  160A  118A  	fcall	_enviardato
  6859                           
  6860                           ;Trayectoria.c: 849: enviardato(0x05,0b01111110);
  6861  17BF  307E               	movlw	126
  6862  17C0  1283               	bcf	3,5	;RP0=0, select bank0
  6863  17C1  1303               	bcf	3,6	;RP1=0, select bank0
  6864  17C2  00B0               	movwf	??_Gol
  6865  17C3  0830               	movf	??_Gol,w
  6866  17C4  00AC               	movwf	enviardato@dato
  6867  17C5  3005               	movlw	5
  6868  17C6  160A  118A  2146  160A  118A  	fcall	_enviardato
  6869                           
  6870                           ;Trayectoria.c: 850: enviardato(0x04,0x02);
  6871  17CB  3002               	movlw	2
  6872  17CC  1283               	bcf	3,5	;RP0=0, select bank0
  6873  17CD  1303               	bcf	3,6	;RP1=0, select bank0
  6874  17CE  00B0               	movwf	??_Gol
  6875  17CF  0830               	movf	??_Gol,w
  6876  17D0  00AC               	movwf	enviardato@dato
  6877  17D1  3004               	movlw	4
  6878  17D2  160A  118A  2146  160A  118A  	fcall	_enviardato
  6879                           
  6880                           ;Trayectoria.c: 851: enviardato(0x03,0x02);
  6881  17D7  3002               	movlw	2
  6882  17D8  1283               	bcf	3,5	;RP0=0, select bank0
  6883  17D9  1303               	bcf	3,6	;RP1=0, select bank0
  6884  17DA  00B0               	movwf	??_Gol
  6885  17DB  0830               	movf	??_Gol,w
  6886  17DC  00AC               	movwf	enviardato@dato
  6887  17DD  3003               	movlw	3
  6888  17DE  160A  118A  2146  160A  118A  	fcall	_enviardato
  6889                           
  6890                           ;Trayectoria.c: 852: enviardato(0x02,0x02);
  6891  17E3  3002               	movlw	2
  6892  17E4  1283               	bcf	3,5	;RP0=0, select bank0
  6893  17E5  1303               	bcf	3,6	;RP1=0, select bank0
  6894  17E6  00B0               	movwf	??_Gol
  6895  17E7  0830               	movf	??_Gol,w
  6896  17E8  00AC               	movwf	enviardato@dato
  6897  17E9  3002               	movlw	2
  6898  17EA  160A  118A  2146  160A  118A  	fcall	_enviardato
  6899                           
  6900                           ;Trayectoria.c: 854: _delay((unsigned long)((1500)*(20000000/4000.0)));
  6901  17EF  3027               	movlw	39
  6902  17F0  1283               	bcf	3,5	;RP0=0, select bank0
  6903  17F1  1303               	bcf	3,6	;RP1=0, select bank0
  6904  17F2  00B2               	movwf	??_Gol+2
  6905  17F3  300D               	movlw	13
  6906  17F4  00B1               	movwf	??_Gol+1
  6907  17F5  3025               	movlw	37
  6908  17F6  00B0               	movwf	??_Gol
  6909  17F7                     u4427:	
  6910  17F7  0BB0               	decfsz	??_Gol,f
  6911  17F8  2FF7               	goto	u4427
  6912  17F9  0BB1               	decfsz	??_Gol+1,f
  6913  17FA  2FF7               	goto	u4427
  6914  17FB  0BB2               	decfsz	??_Gol+2,f
  6915  17FC  2FF7               	goto	u4427
  6916  17FD  2FFE               	nop2
  6917                           
  6918                           ;Trayectoria.c: 855: INTCONbits.RBIE=0;
  6919  17FE  118B               	bcf	11,3	;volatile
  6920  17FF  0008               	return
  6921  1800                     __end_of_Gol:	
  6922                           
  6923                           	psect	text13
  6924  1167                     __ptext13:	
  6925 ;; *************** function _enviardato2 *****************
  6926 ;; Defined at:
  6927 ;;		line 361 in file "Trayectoria.c"
  6928 ;; Parameters:    Size  Location     Type
  6929 ;;  direccion       1    wreg     unsigned char 
  6930 ;;  dato            1   12[BANK0 ] unsigned char 
  6931 ;; Auto vars:     Size  Location     Type
  6932 ;;  direccion       1   15[BANK0 ] unsigned char 
  6933 ;; Return value:  Size  Location     Type
  6934 ;;                  1    wreg      void 
  6935 ;; Registers used:
  6936 ;;		wreg
  6937 ;; Tracked objects:
  6938 ;;		On entry : 0/0
  6939 ;;		On exit  : 0/0
  6940 ;;		Unchanged: 0/0
  6941 ;; Data sizes:     COMMON   BANK0   BANK1   BANK3   BANK2
  6942 ;;      Params:         0       1       0       0       0
  6943 ;;      Locals:         0       1       0       0       0
  6944 ;;      Temps:          0       2       0       0       0
  6945 ;;      Totals:         0       4       0       0       0
  6946 ;;Total ram usage:        4 bytes
  6947 ;; Hardware stack levels used:    1
  6948 ;; Hardware stack levels required when called:    3
  6949 ;; This function calls:
  6950 ;;		Nothing
  6951 ;; This function is called by:
  6952 ;;		_main
  6953 ;;		_Posicioninicial
  6954 ;;		_Juego
  6955 ;;		_Gol
  6956 ;;		_Saque
  6957 ;;		_Marcador
  6958 ;;		_barras
  6959 ;; This function uses a non-reentrant model
  6960 ;;
  6961                           
  6962                           
  6963                           ;psect for function _enviardato2
  6964  1167                     _enviardato2:	
  6965                           
  6966                           ;incstack = 0
  6967                           ; Regs used in _enviardato2: [wreg]
  6968                           ;enviardato2@direccion stored from wreg
  6969  1167  1283               	bcf	3,5	;RP0=0, select bank0
  6970  1168  1303               	bcf	3,6	;RP1=0, select bank0
  6971  1169  00AF               	movwf	enviardato2@direccion
  6972                           
  6973                           ;Trayectoria.c: 363: PORTCbits.RC7=0;
  6974  116A  1387               	bcf	7,7	;volatile
  6975                           
  6976                           ;Trayectoria.c: 365: SSPBUF=direccion;
  6977  116B  082F               	movf	enviardato2@direccion,w
  6978  116C  0093               	movwf	19	;volatile
  6979  116D                     l248:	
  6980                           ;Trayectoria.c: 366: while(SSPSTATbits.BF==0);
  6981                           
  6982  116D  1683               	bsf	3,5	;RP0=1, select bank1
  6983  116E  1303               	bcf	3,6	;RP1=0, select bank1
  6984  116F  1C14               	btfss	20,0	;volatile
  6985  1170  296D               	goto	l248
  6986                           
  6987                           ;Trayectoria.c: 367: SSPBUF=dato;
  6988  1171  1283               	bcf	3,5	;RP0=0, select bank0
  6989  1172  1303               	bcf	3,6	;RP1=0, select bank0
  6990  1173  082C               	movf	enviardato2@dato,w
  6991  1174  0093               	movwf	19	;volatile
  6992  1175                     l251:	
  6993                           ;Trayectoria.c: 368: while(SSPSTATbits.BF==0);
  6994                           
  6995  1175  1683               	bsf	3,5	;RP0=1, select bank1
  6996  1176  1303               	bcf	3,6	;RP1=0, select bank1
  6997  1177  1C14               	btfss	20,0	;volatile
  6998  1178  2975               	goto	l251
  6999                           
  7000                           ;Trayectoria.c: 369: _delay((unsigned long)((1)*(20000000/4000.0)));
  7001  1179  3007               	movlw	7
  7002  117A  1283               	bcf	3,5	;RP0=0, select bank0
  7003  117B  1303               	bcf	3,6	;RP1=0, select bank0
  7004  117C  00AE               	movwf	??_enviardato2+1
  7005  117D  307C               	movlw	124
  7006  117E  00AD               	movwf	??_enviardato2
  7007  117F                     u4437:	
  7008  117F  0BAD               	decfsz	??_enviardato2,f
  7009  1180  297F               	goto	u4437
  7010  1181  0BAE               	decfsz	??_enviardato2+1,f
  7011  1182  297F               	goto	u4437
  7012  1183  0000               	nop
  7013                           
  7014                           ;Trayectoria.c: 371: PORTCbits.RC7=1;
  7015  1184  1283               	bcf	3,5	;RP0=0, select bank0
  7016  1185  1303               	bcf	3,6	;RP1=0, select bank0
  7017  1186  1787               	bsf	7,7	;volatile
  7018  1187  0008               	return
  7019  1188                     __end_of_enviardato2:	
  7020                           
  7021                           	psect	text14
  7022  1146                     __ptext14:	
  7023 ;; *************** function _enviardato *****************
  7024 ;; Defined at:
  7025 ;;		line 329 in file "Trayectoria.c"
  7026 ;; Parameters:    Size  Location     Type
  7027 ;;  direccion       1    wreg     unsigned char 
  7028 ;;  dato            1   12[BANK0 ] unsigned char 
  7029 ;; Auto vars:     Size  Location     Type
  7030 ;;  direccion       1   15[BANK0 ] unsigned char 
  7031 ;; Return value:  Size  Location     Type
  7032 ;;                  1    wreg      void 
  7033 ;; Registers used:
  7034 ;;		wreg
  7035 ;; Tracked objects:
  7036 ;;		On entry : 0/0
  7037 ;;		On exit  : 0/0
  7038 ;;		Unchanged: 0/0
  7039 ;; Data sizes:     COMMON   BANK0   BANK1   BANK3   BANK2
  7040 ;;      Params:         0       1       0       0       0
  7041 ;;      Locals:         0       1       0       0       0
  7042 ;;      Temps:          0       2       0       0       0
  7043 ;;      Totals:         0       4       0       0       0
  7044 ;;Total ram usage:        4 bytes
  7045 ;; Hardware stack levels used:    1
  7046 ;; Hardware stack levels required when called:    3
  7047 ;; This function calls:
  7048 ;;		Nothing
  7049 ;; This function is called by:
  7050 ;;		_main
  7051 ;;		_Posicioninicial
  7052 ;;		_Juego
  7053 ;;		_Gol
  7054 ;;		_Saque
  7055 ;;		_Marcador
  7056 ;;		_barras
  7057 ;; This function uses a non-reentrant model
  7058 ;;
  7059                           
  7060                           
  7061                           ;psect for function _enviardato
  7062  1146                     _enviardato:	
  7063                           
  7064                           ;incstack = 0
  7065                           ; Regs used in _enviardato: [wreg]
  7066                           ;enviardato@direccion stored from wreg
  7067  1146  1283               	bcf	3,5	;RP0=0, select bank0
  7068  1147  1303               	bcf	3,6	;RP1=0, select bank0
  7069  1148  00AF               	movwf	enviardato@direccion
  7070                           
  7071                           ;Trayectoria.c: 331: PORTCbits.RC0=0;
  7072  1149  1007               	bcf	7,0	;volatile
  7073                           
  7074                           ;Trayectoria.c: 333: SSPBUF=direccion;
  7075  114A  082F               	movf	enviardato@direccion,w
  7076  114B  0093               	movwf	19	;volatile
  7077  114C                     l224:	
  7078                           ;Trayectoria.c: 334: while(SSPSTATbits.BF==0);
  7079                           
  7080  114C  1683               	bsf	3,5	;RP0=1, select bank1
  7081  114D  1303               	bcf	3,6	;RP1=0, select bank1
  7082  114E  1C14               	btfss	20,0	;volatile
  7083  114F  294C               	goto	l224
  7084                           
  7085                           ;Trayectoria.c: 335: SSPBUF=dato;
  7086  1150  1283               	bcf	3,5	;RP0=0, select bank0
  7087  1151  1303               	bcf	3,6	;RP1=0, select bank0
  7088  1152  082C               	movf	enviardato@dato,w
  7089  1153  0093               	movwf	19	;volatile
  7090  1154                     l227:	
  7091                           ;Trayectoria.c: 336: while(SSPSTATbits.BF==0);
  7092                           
  7093  1154  1683               	bsf	3,5	;RP0=1, select bank1
  7094  1155  1303               	bcf	3,6	;RP1=0, select bank1
  7095  1156  1C14               	btfss	20,0	;volatile
  7096  1157  2954               	goto	l227
  7097                           
  7098                           ;Trayectoria.c: 337: _delay((unsigned long)((1)*(20000000/4000.0)));
  7099  1158  3007               	movlw	7
  7100  1159  1283               	bcf	3,5	;RP0=0, select bank0
  7101  115A  1303               	bcf	3,6	;RP1=0, select bank0
  7102  115B  00AE               	movwf	??_enviardato+1
  7103  115C  307C               	movlw	124
  7104  115D  00AD               	movwf	??_enviardato
  7105  115E                     u4447:	
  7106  115E  0BAD               	decfsz	??_enviardato,f
  7107  115F  295E               	goto	u4447
  7108  1160  0BAE               	decfsz	??_enviardato+1,f
  7109  1161  295E               	goto	u4447
  7110  1162  0000               	nop
  7111                           
  7112                           ;Trayectoria.c: 339: PORTCbits.RC0=1;
  7113  1163  1283               	bcf	3,5	;RP0=0, select bank0
  7114  1164  1303               	bcf	3,6	;RP1=0, select bank0
  7115  1165  1407               	bsf	7,0	;volatile
  7116  1166  0008               	return
  7117  1167                     __end_of_enviardato:	
  7118                           
  7119                           	psect	text15
  7120  10D1                     __ptext15:	
  7121 ;; *************** function _InitTMR1 *****************
  7122 ;; Defined at:
  7123 ;;		line 271 in file "Trayectoria.c"
  7124 ;; Parameters:    Size  Location     Type
  7125 ;;		None
  7126 ;; Auto vars:     Size  Location     Type
  7127 ;;		None
  7128 ;; Return value:  Size  Location     Type
  7129 ;;                  1    wreg      void 
  7130 ;; Registers used:
  7131 ;;		wreg, status,2
  7132 ;; Tracked objects:
  7133 ;;		On entry : 0/0
  7134 ;;		On exit  : 0/0
  7135 ;;		Unchanged: 0/0
  7136 ;; Data sizes:     COMMON   BANK0   BANK1   BANK3   BANK2
  7137 ;;      Params:         0       0       0       0       0
  7138 ;;      Locals:         0       0       0       0       0
  7139 ;;      Temps:          0       0       0       0       0
  7140 ;;      Totals:         0       0       0       0       0
  7141 ;;Total ram usage:        0 bytes
  7142 ;; Hardware stack levels used:    1
  7143 ;; Hardware stack levels required when called:    3
  7144 ;; This function calls:
  7145 ;;		Nothing
  7146 ;; This function is called by:
  7147 ;;		_main
  7148 ;; This function uses a non-reentrant model
  7149 ;;
  7150                           
  7151                           
  7152                           ;psect for function _InitTMR1
  7153  10D1                     _InitTMR1:	
  7154                           
  7155                           ;Trayectoria.c: 273: T1CON=T1CON | 0x30;
  7156                           
  7157                           ;incstack = 0
  7158                           ; Regs used in _InitTMR1: [wreg+status,2]
  7159  10D1  1283               	bcf	3,5	;RP0=0, select bank0
  7160  10D2  1303               	bcf	3,6	;RP1=0, select bank0
  7161  10D3  0810               	movf	16,w	;volatile
  7162  10D4  3830               	iorlw	48
  7163  10D5  0090               	movwf	16	;volatile
  7164                           
  7165                           ;Trayectoria.c: 274: T1CONbits.TMR1CS = 0;
  7166  10D6  1090               	bcf	16,1	;volatile
  7167                           
  7168                           ;Trayectoria.c: 275: T1CONbits.TMR1GE = 0;
  7169  10D7  1310               	bcf	16,6	;volatile
  7170                           
  7171                           ;Trayectoria.c: 276: TMR1=62411;
  7172  10D8  30F3               	movlw	243
  7173  10D9  008F               	movwf	15	;volatile
  7174  10DA  30CB               	movlw	203
  7175  10DB  008E               	movwf	14	;volatile
  7176                           
  7177                           ;Trayectoria.c: 277: PIR1bits.TMR1IF = 0;
  7178  10DC  100C               	bcf	12,0	;volatile
  7179                           
  7180                           ;Trayectoria.c: 278: INTCONbits.GIE = 1;
  7181  10DD  178B               	bsf	11,7	;volatile
  7182                           
  7183                           ;Trayectoria.c: 279: INTCONbits.PEIE = 1;
  7184  10DE  170B               	bsf	11,6	;volatile
  7185                           
  7186                           ;Trayectoria.c: 280: INTCONbits.RBIE=1;
  7187  10DF  158B               	bsf	11,3	;volatile
  7188                           
  7189                           ;Trayectoria.c: 281: INTCONbits.RBIF=0;
  7190  10E0  100B               	bcf	11,0	;volatile
  7191                           
  7192                           ;Trayectoria.c: 282: PIE1bits.TMR1IE = 0;
  7193  10E1  1683               	bsf	3,5	;RP0=1, select bank1
  7194  10E2  1303               	bcf	3,6	;RP1=0, select bank1
  7195  10E3  100C               	bcf	12,0	;volatile
  7196                           
  7197                           ;Trayectoria.c: 283: T1CONbits.TMR1ON = 0;
  7198  10E4  1283               	bcf	3,5	;RP0=0, select bank0
  7199  10E5  1303               	bcf	3,6	;RP1=0, select bank0
  7200  10E6  1010               	bcf	16,0	;volatile
  7201                           
  7202                           ;Trayectoria.c: 284: IOCB=0b11000011;
  7203  10E7  30C3               	movlw	195
  7204  10E8  1683               	bsf	3,5	;RP0=1, select bank1
  7205  10E9  1303               	bcf	3,6	;RP1=0, select bank1
  7206  10EA  0096               	movwf	22	;volatile
  7207  10EB  0008               	return
  7208  10EC                     __end_of_InitTMR1:	
  7209                           
  7210                           	psect	text16
  7211  1366                     __ptext16:	
  7212 ;; *************** function _InitSPI *****************
  7213 ;; Defined at:
  7214 ;;		line 286 in file "Trayectoria.c"
  7215 ;; Parameters:    Size  Location     Type
  7216 ;;		None
  7217 ;; Auto vars:     Size  Location     Type
  7218 ;;		None
  7219 ;; Return value:  Size  Location     Type
  7220 ;;                  1    wreg      void 
  7221 ;; Registers used:
  7222 ;;		wreg, status,2, status,0, pclath, cstack
  7223 ;; Tracked objects:
  7224 ;;		On entry : 0/0
  7225 ;;		On exit  : 0/0
  7226 ;;		Unchanged: 0/0
  7227 ;; Data sizes:     COMMON   BANK0   BANK1   BANK3   BANK2
  7228 ;;      Params:         0       0       0       0       0
  7229 ;;      Locals:         0       0       0       0       0
  7230 ;;      Temps:          0       1       0       0       0
  7231 ;;      Totals:         0       1       0       0       0
  7232 ;;Total ram usage:        1 bytes
  7233 ;; Hardware stack levels used:    1
  7234 ;; Hardware stack levels required when called:    4
  7235 ;; This function calls:
  7236 ;;		_enviardato0
  7237 ;; This function is called by:
  7238 ;;		_main
  7239 ;; This function uses a non-reentrant model
  7240 ;;
  7241                           
  7242                           
  7243                           ;psect for function _InitSPI
  7244  1366                     _InitSPI:	
  7245                           
  7246                           ;Trayectoria.c: 290: SSPSTAT=0b11000000;
  7247                           
  7248                           ;incstack = 0
  7249                           ; Regs used in _InitSPI: [wreg+status,2+status,0+pclath+cstack]
  7250  1366  30C0               	movlw	192
  7251  1367  1683               	bsf	3,5	;RP0=1, select bank1
  7252  1368  1303               	bcf	3,6	;RP1=0, select bank1
  7253  1369  0094               	movwf	20	;volatile
  7254                           
  7255                           ;Trayectoria.c: 291: SSPCON=0b00110010;
  7256  136A  3032               	movlw	50
  7257  136B  1283               	bcf	3,5	;RP0=0, select bank0
  7258  136C  1303               	bcf	3,6	;RP1=0, select bank0
  7259  136D  0094               	movwf	20	;volatile
  7260                           
  7261                           ;Trayectoria.c: 293: enviardato0(0x0C,0x00);
  7262  136E  01AC               	clrf	enviardato0@dato
  7263  136F  300C               	movlw	12
  7264  1370  120A  118A  27CA  160A  118A  	fcall	_enviardato0
  7265                           
  7266                           ;Trayectoria.c: 294: enviardato0(0x01,0);
  7267  1375  1283               	bcf	3,5	;RP0=0, select bank0
  7268  1376  1303               	bcf	3,6	;RP1=0, select bank0
  7269  1377  01AC               	clrf	enviardato0@dato
  7270  1378  3001               	movlw	1
  7271  1379  120A  118A  27CA  160A  118A  	fcall	_enviardato0
  7272                           
  7273                           ;Trayectoria.c: 295: enviardato0(0x02,0);
  7274  137E  1283               	bcf	3,5	;RP0=0, select bank0
  7275  137F  1303               	bcf	3,6	;RP1=0, select bank0
  7276  1380  01AC               	clrf	enviardato0@dato
  7277  1381  3002               	movlw	2
  7278  1382  120A  118A  27CA  160A  118A  	fcall	_enviardato0
  7279                           
  7280                           ;Trayectoria.c: 296: enviardato0(0x03,0);
  7281  1387  1283               	bcf	3,5	;RP0=0, select bank0
  7282  1388  1303               	bcf	3,6	;RP1=0, select bank0
  7283  1389  01AC               	clrf	enviardato0@dato
  7284  138A  3003               	movlw	3
  7285  138B  120A  118A  27CA  160A  118A  	fcall	_enviardato0
  7286                           
  7287                           ;Trayectoria.c: 297: enviardato0(0x04,0);
  7288  1390  1283               	bcf	3,5	;RP0=0, select bank0
  7289  1391  1303               	bcf	3,6	;RP1=0, select bank0
  7290  1392  01AC               	clrf	enviardato0@dato
  7291  1393  3004               	movlw	4
  7292  1394  120A  118A  27CA  160A  118A  	fcall	_enviardato0
  7293                           
  7294                           ;Trayectoria.c: 298: enviardato0(0x05,0);
  7295  1399  1283               	bcf	3,5	;RP0=0, select bank0
  7296  139A  1303               	bcf	3,6	;RP1=0, select bank0
  7297  139B  01AC               	clrf	enviardato0@dato
  7298  139C  3005               	movlw	5
  7299  139D  120A  118A  27CA  160A  118A  	fcall	_enviardato0
  7300                           
  7301                           ;Trayectoria.c: 299: enviardato0(0x06,0);
  7302  13A2  1283               	bcf	3,5	;RP0=0, select bank0
  7303  13A3  1303               	bcf	3,6	;RP1=0, select bank0
  7304  13A4  01AC               	clrf	enviardato0@dato
  7305  13A5  3006               	movlw	6
  7306  13A6  120A  118A  27CA  160A  118A  	fcall	_enviardato0
  7307                           
  7308                           ;Trayectoria.c: 300: enviardato0(0x07,0);
  7309  13AB  1283               	bcf	3,5	;RP0=0, select bank0
  7310  13AC  1303               	bcf	3,6	;RP1=0, select bank0
  7311  13AD  01AC               	clrf	enviardato0@dato
  7312  13AE  3007               	movlw	7
  7313  13AF  120A  118A  27CA  160A  118A  	fcall	_enviardato0
  7314                           
  7315                           ;Trayectoria.c: 301: enviardato0(0x08,0);
  7316  13B4  1283               	bcf	3,5	;RP0=0, select bank0
  7317  13B5  1303               	bcf	3,6	;RP1=0, select bank0
  7318  13B6  01AC               	clrf	enviardato0@dato
  7319  13B7  3008               	movlw	8
  7320  13B8  120A  118A  27CA  160A  118A  	fcall	_enviardato0
  7321                           
  7322                           ;Trayectoria.c: 303: enviardato0(0x0B,0x07);
  7323  13BD  3007               	movlw	7
  7324  13BE  1283               	bcf	3,5	;RP0=0, select bank0
  7325  13BF  1303               	bcf	3,6	;RP1=0, select bank0
  7326  13C0  00B0               	movwf	??_InitSPI
  7327  13C1  0830               	movf	??_InitSPI,w
  7328  13C2  00AC               	movwf	enviardato0@dato
  7329  13C3  300B               	movlw	11
  7330  13C4  120A  118A  27CA  160A  118A  	fcall	_enviardato0
  7331                           
  7332                           ;Trayectoria.c: 304: enviardato0(0x09,0);
  7333  13C9  1283               	bcf	3,5	;RP0=0, select bank0
  7334  13CA  1303               	bcf	3,6	;RP1=0, select bank0
  7335  13CB  01AC               	clrf	enviardato0@dato
  7336  13CC  3009               	movlw	9
  7337  13CD  120A  118A  27CA  160A  118A  	fcall	_enviardato0
  7338                           
  7339                           ;Trayectoria.c: 305: enviardato0(0x0C,0x01);
  7340  13D2  1283               	bcf	3,5	;RP0=0, select bank0
  7341  13D3  1303               	bcf	3,6	;RP1=0, select bank0
  7342  13D4  01AC               	clrf	enviardato0@dato
  7343  13D5  0AAC               	incf	enviardato0@dato,f
  7344  13D6  300C               	movlw	12
  7345  13D7  120A  118A  27CA  160A  118A  	fcall	_enviardato0
  7346                           
  7347                           ;Trayectoria.c: 306: enviardato0(0x0F,0);
  7348  13DC  1283               	bcf	3,5	;RP0=0, select bank0
  7349  13DD  1303               	bcf	3,6	;RP1=0, select bank0
  7350  13DE  01AC               	clrf	enviardato0@dato
  7351  13DF  300F               	movlw	15
  7352  13E0  120A  118A  27CA  160A  118A  	fcall	_enviardato0
  7353                           
  7354                           ;Trayectoria.c: 307: enviardato0(0x0A,0x0F);
  7355  13E5  300F               	movlw	15
  7356  13E6  1283               	bcf	3,5	;RP0=0, select bank0
  7357  13E7  1303               	bcf	3,6	;RP1=0, select bank0
  7358  13E8  00B0               	movwf	??_InitSPI
  7359  13E9  0830               	movf	??_InitSPI,w
  7360  13EA  00AC               	movwf	enviardato0@dato
  7361  13EB  300A               	movlw	10
  7362  13EC  120A  118A  27CA   	fcall	_enviardato0
  7363  13EF  0008               	return
  7364  13F0                     __end_of_InitSPI:	
  7365                           
  7366                           	psect	text17
  7367  07CA                     __ptext17:	
  7368 ;; *************** function _enviardato0 *****************
  7369 ;; Defined at:
  7370 ;;		line 314 in file "Trayectoria.c"
  7371 ;; Parameters:    Size  Location     Type
  7372 ;;  direccion       1    wreg     unsigned char 
  7373 ;;  dato            1   12[BANK0 ] unsigned char 
  7374 ;; Auto vars:     Size  Location     Type
  7375 ;;  direccion       1   15[BANK0 ] unsigned char 
  7376 ;; Return value:  Size  Location     Type
  7377 ;;                  1    wreg      void 
  7378 ;; Registers used:
  7379 ;;		wreg
  7380 ;; Tracked objects:
  7381 ;;		On entry : 0/0
  7382 ;;		On exit  : 0/0
  7383 ;;		Unchanged: 0/0
  7384 ;; Data sizes:     COMMON   BANK0   BANK1   BANK3   BANK2
  7385 ;;      Params:         0       1       0       0       0
  7386 ;;      Locals:         0       1       0       0       0
  7387 ;;      Temps:          0       2       0       0       0
  7388 ;;      Totals:         0       4       0       0       0
  7389 ;;Total ram usage:        4 bytes
  7390 ;; Hardware stack levels used:    1
  7391 ;; Hardware stack levels required when called:    3
  7392 ;; This function calls:
  7393 ;;		Nothing
  7394 ;; This function is called by:
  7395 ;;		_main
  7396 ;;		_InitSPI
  7397 ;;		_Gol
  7398 ;;		_Saque
  7399 ;;		_Marcador
  7400 ;; This function uses a non-reentrant model
  7401 ;;
  7402                           
  7403                           
  7404                           ;psect for function _enviardato0
  7405  07CA                     _enviardato0:	
  7406                           
  7407                           ;incstack = 0
  7408                           ; Regs used in _enviardato0: [wreg]
  7409                           ;enviardato0@direccion stored from wreg
  7410  07CA  1283               	bcf	3,5	;RP0=0, select bank0
  7411  07CB  1303               	bcf	3,6	;RP1=0, select bank0
  7412  07CC  00AF               	movwf	enviardato0@direccion
  7413                           
  7414                           ;Trayectoria.c: 316: PORTCbits.RC0=0;
  7415  07CD  1007               	bcf	7,0	;volatile
  7416                           
  7417                           ;Trayectoria.c: 317: PORTCbits.RC7=0;
  7418  07CE  1387               	bcf	7,7	;volatile
  7419                           
  7420                           ;Trayectoria.c: 319: SSPBUF=direccion;
  7421  07CF  082F               	movf	enviardato0@direccion,w
  7422  07D0  0093               	movwf	19	;volatile
  7423  07D1                     l215:	
  7424                           ;Trayectoria.c: 320: while(SSPSTATbits.BF==0);
  7425                           
  7426  07D1  1683               	bsf	3,5	;RP0=1, select bank1
  7427  07D2  1303               	bcf	3,6	;RP1=0, select bank1
  7428  07D3  1C14               	btfss	20,0	;volatile
  7429  07D4  2FD1               	goto	l215
  7430                           
  7431                           ;Trayectoria.c: 321: SSPBUF=dato;
  7432  07D5  1283               	bcf	3,5	;RP0=0, select bank0
  7433  07D6  1303               	bcf	3,6	;RP1=0, select bank0
  7434  07D7  082C               	movf	enviardato0@dato,w
  7435  07D8  0093               	movwf	19	;volatile
  7436  07D9                     l218:	
  7437                           ;Trayectoria.c: 322: while(SSPSTATbits.BF==0);
  7438                           
  7439  07D9  1683               	bsf	3,5	;RP0=1, select bank1
  7440  07DA  1303               	bcf	3,6	;RP1=0, select bank1
  7441  07DB  1C14               	btfss	20,0	;volatile
  7442  07DC  2FD9               	goto	l218
  7443                           
  7444                           ;Trayectoria.c: 323: _delay((unsigned long)((1)*(20000000/4000.0)));
  7445  07DD  3007               	movlw	7
  7446  07DE  1283               	bcf	3,5	;RP0=0, select bank0
  7447  07DF  1303               	bcf	3,6	;RP1=0, select bank0
  7448  07E0  00AE               	movwf	??_enviardato0+1
  7449  07E1  307C               	movlw	124
  7450  07E2  00AD               	movwf	??_enviardato0
  7451  07E3                     u4457:	
  7452  07E3  0BAD               	decfsz	??_enviardato0,f
  7453  07E4  2FE3               	goto	u4457
  7454  07E5  0BAE               	decfsz	??_enviardato0+1,f
  7455  07E6  2FE3               	goto	u4457
  7456  07E7  0000               	nop
  7457                           
  7458                           ;Trayectoria.c: 325: PORTCbits.RC0=1;
  7459  07E8  1283               	bcf	3,5	;RP0=0, select bank0
  7460  07E9  1303               	bcf	3,6	;RP1=0, select bank0
  7461  07EA  1407               	bsf	7,0	;volatile
  7462                           
  7463                           ;Trayectoria.c: 326: PORTCbits.RC7=1;
  7464  07EB  1787               	bsf	7,7	;volatile
  7465  07EC  0008               	return
  7466  07ED                     __end_of_enviardato0:	
  7467                           
  7468                           	psect	text18
  7469  10B7                     __ptext18:	
  7470 ;; *************** function _InitES *****************
  7471 ;; Defined at:
  7472 ;;		line 253 in file "Trayectoria.c"
  7473 ;; Parameters:    Size  Location     Type
  7474 ;;		None
  7475 ;; Auto vars:     Size  Location     Type
  7476 ;;		None
  7477 ;; Return value:  Size  Location     Type
  7478 ;;                  1    wreg      void 
  7479 ;; Registers used:
  7480 ;;		wreg, status,2
  7481 ;; Tracked objects:
  7482 ;;		On entry : 0/0
  7483 ;;		On exit  : 0/0
  7484 ;;		Unchanged: 0/0
  7485 ;; Data sizes:     COMMON   BANK0   BANK1   BANK3   BANK2
  7486 ;;      Params:         0       0       0       0       0
  7487 ;;      Locals:         0       0       0       0       0
  7488 ;;      Temps:          0       0       0       0       0
  7489 ;;      Totals:         0       0       0       0       0
  7490 ;;Total ram usage:        0 bytes
  7491 ;; Hardware stack levels used:    1
  7492 ;; Hardware stack levels required when called:    3
  7493 ;; This function calls:
  7494 ;;		Nothing
  7495 ;; This function is called by:
  7496 ;;		_main
  7497 ;; This function uses a non-reentrant model
  7498 ;;
  7499                           
  7500                           
  7501                           ;psect for function _InitES
  7502  10B7                     _InitES:	
  7503                           
  7504                           ;Trayectoria.c: 255: ANSEL=0;
  7505                           
  7506                           ;incstack = 0
  7507                           ; Regs used in _InitES: [wreg+status,2]
  7508  10B7  1683               	bsf	3,5	;RP0=1, select bank3
  7509  10B8  1703               	bsf	3,6	;RP1=1, select bank3
  7510  10B9  0188               	clrf	8	;volatile
  7511                           
  7512                           ;Trayectoria.c: 256: ANSELH=0;
  7513  10BA  0189               	clrf	9	;volatile
  7514                           
  7515                           ;Trayectoria.c: 257: TRISCbits.TRISC0=0;
  7516  10BB  1683               	bsf	3,5	;RP0=1, select bank1
  7517  10BC  1303               	bcf	3,6	;RP1=0, select bank1
  7518  10BD  1007               	bcf	7,0	;volatile
  7519                           
  7520                           ;Trayectoria.c: 258: TRISCbits.TRISC3=0;
  7521  10BE  1187               	bcf	7,3	;volatile
  7522                           
  7523                           ;Trayectoria.c: 259: TRISCbits.TRISC4=1;
  7524  10BF  1607               	bsf	7,4	;volatile
  7525                           
  7526                           ;Trayectoria.c: 260: TRISCbits.TRISC5=0;
  7527  10C0  1287               	bcf	7,5	;volatile
  7528                           
  7529                           ;Trayectoria.c: 261: TRISCbits.TRISC7=0;
  7530  10C1  1387               	bcf	7,7	;volatile
  7531                           
  7532                           ;Trayectoria.c: 262: TRISB=0b11111111;
  7533  10C2  30FF               	movlw	255
  7534  10C3  0086               	movwf	6	;volatile
  7535                           
  7536                           ;Trayectoria.c: 263: PORTB=0;
  7537  10C4  1283               	bcf	3,5	;RP0=0, select bank0
  7538  10C5  1303               	bcf	3,6	;RP1=0, select bank0
  7539  10C6  0186               	clrf	6	;volatile
  7540                           
  7541                           ;Trayectoria.c: 264: PORTC=0;
  7542  10C7  0187               	clrf	7	;volatile
  7543                           
  7544                           ;Trayectoria.c: 265: PORTCbits.RC0=1;
  7545  10C8  1407               	bsf	7,0	;volatile
  7546                           
  7547                           ;Trayectoria.c: 266: PORTCbits.RC7=1;
  7548  10C9  1787               	bsf	7,7	;volatile
  7549                           
  7550                           ;Trayectoria.c: 267: TRISD=0;
  7551  10CA  1683               	bsf	3,5	;RP0=1, select bank1
  7552  10CB  1303               	bcf	3,6	;RP1=0, select bank1
  7553  10CC  0188               	clrf	8	;volatile
  7554                           
  7555                           ;Trayectoria.c: 268: PORTD=0;
  7556  10CD  1283               	bcf	3,5	;RP0=0, select bank0
  7557  10CE  1303               	bcf	3,6	;RP1=0, select bank0
  7558  10CF  0188               	clrf	8	;volatile
  7559  10D0  0008               	return
  7560  10D1                     __end_of_InitES:	
  7561                           
  7562                           	psect	text19
  7563  1622                     __ptext19:	
  7564 ;; *************** function _rutinainterrupciones *****************
  7565 ;; Defined at:
  7566 ;;		line 65 in file "Trayectoria.c"
  7567 ;; Parameters:    Size  Location     Type
  7568 ;;		None
  7569 ;; Auto vars:     Size  Location     Type
  7570 ;;		None
  7571 ;; Return value:  Size  Location     Type
  7572 ;;                  1    wreg      void 
  7573 ;; Registers used:
  7574 ;;		wreg, status,2, status,0, pclath, cstack
  7575 ;; Tracked objects:
  7576 ;;		On entry : 0/0
  7577 ;;		On exit  : 0/0
  7578 ;;		Unchanged: 0/0
  7579 ;; Data sizes:     COMMON   BANK0   BANK1   BANK3   BANK2
  7580 ;;      Params:         0       0       0       0       0
  7581 ;;      Locals:         0       0       0       0       0
  7582 ;;      Temps:          0       7       0       0       0
  7583 ;;      Totals:         0       7       0       0       0
  7584 ;;Total ram usage:        7 bytes
  7585 ;; Hardware stack levels used:    1
  7586 ;; Hardware stack levels required when called:    2
  7587 ;; This function calls:
  7588 ;;		i1___awdiv
  7589 ;;		i1_barras
  7590 ;; This function is called by:
  7591 ;;		Interrupt level 1
  7592 ;; This function uses a non-reentrant model
  7593 ;;
  7594                           
  7595                           
  7596                           ;psect for function _rutinainterrupciones
  7597  1622                     _rutinainterrupciones:	
  7598                           
  7599                           ;Trayectoria.c: 92: if(INTCONbits.RBIF==1 )
  7600  1622  1C0B               	btfss	11,0	;volatile
  7601  1623  2F00               	goto	i1l180
  7602                           
  7603                           ;Trayectoria.c: 93: {
  7604                           ;Trayectoria.c: 95: INTCONbits.RBIF=0;
  7605  1624  100B               	bcf	11,0	;volatile
  7606                           
  7607                           ;Trayectoria.c: 96: if (PORTBbits.RB6==1)
  7608  1625  1F06               	btfss	6,6	;volatile
  7609  1626  2E51               	goto	i1l165
  7610                           
  7611                           ;Trayectoria.c: 97: {
  7612                           ;Trayectoria.c: 98: _delay((unsigned long)((40)*(20000000/4000.0)));
  7613  1627  3002               	movlw	2
  7614  1628  1283               	bcf	3,5	;RP0=0, select bank0
  7615  1629  1303               	bcf	3,6	;RP1=0, select bank0
  7616  162A  00A7               	movwf	??_rutinainterrupciones+2
  7617  162B  3004               	movlw	4
  7618  162C  00A6               	movwf	??_rutinainterrupciones+1
  7619  162D  30B9               	movlw	185
  7620  162E  00A5               	movwf	??_rutinainterrupciones
  7621  162F                     u446_27:	
  7622  162F  0BA5               	decfsz	??_rutinainterrupciones,f
  7623  1630  2E2F               	goto	u446_27
  7624  1631  0BA6               	decfsz	??_rutinainterrupciones+1,f
  7625  1632  2E2F               	goto	u446_27
  7626  1633  0BA7               	decfsz	??_rutinainterrupciones+2,f
  7627  1634  2E2F               	goto	u446_27
  7628  1635  2E36               	nop2
  7629                           
  7630                           ;Trayectoria.c: 99: if(PORTBbits.RB6==1)
  7631  1636  1283               	bcf	3,5	;RP0=0, select bank0
  7632  1637  1303               	bcf	3,6	;RP1=0, select bank0
  7633  1638  1F06               	btfss	6,6	;volatile
  7634  1639  2F00               	goto	i1l180
  7635                           
  7636                           ;Trayectoria.c: 100: {
  7637                           ;Trayectoria.c: 102: _delay((unsigned long)((5)*(20000000/4000.0)));
  7638  163A  3021               	movlw	33
  7639  163B  1283               	bcf	3,5	;RP0=0, select bank0
  7640  163C  1303               	bcf	3,6	;RP1=0, select bank0
  7641  163D  00A6               	movwf	??_rutinainterrupciones+1
  7642  163E  3075               	movlw	117
  7643  163F  00A5               	movwf	??_rutinainterrupciones
  7644  1640                     u447_27:	
  7645  1640  0BA5               	decfsz	??_rutinainterrupciones,f
  7646  1641  2E40               	goto	u447_27
  7647  1642  0BA6               	decfsz	??_rutinainterrupciones+1,f
  7648  1643  2E40               	goto	u447_27
  7649  1644  2E45               	nop2
  7650                           
  7651                           ;Trayectoria.c: 105: if(ledbarra1!=0x40)
  7652  1645  3040               	movlw	64
  7653  1646  1283               	bcf	3,5	;RP0=0, select bank0
  7654  1647  1303               	bcf	3,6	;RP1=0, select bank0
  7655  1648  065D               	xorwf	_ledbarra1,w
  7656  1649  1903               	btfsc	3,2
  7657  164A  2F00               	goto	i1l180
  7658                           
  7659                           ;Trayectoria.c: 106: {
  7660                           ;Trayectoria.c: 107: ledbarra1=ledbarra1*2;
  7661  164B  085D               	movf	_ledbarra1,w
  7662  164C  00A5               	movwf	??_rutinainterrupciones
  7663  164D  0725               	addwf	??_rutinainterrupciones,w
  7664  164E  00A6               	movwf	??_rutinainterrupciones+1
  7665  164F  0826               	movf	??_rutinainterrupciones+1,w
  7666  1650  2E8C               	goto	L20
  7667  1651                     i1l165:	
  7668                           ;Trayectoria.c: 109: }
  7669                           ;Trayectoria.c: 111: }
  7670                           ;Trayectoria.c: 112: }
  7671                           
  7672                           ;Trayectoria.c: 108: barras(ledbarra1,ledbarra2);
  7673                           
  7674                           
  7675                           ;Trayectoria.c: 113: else if (PORTBbits.RB7==1)
  7676  1651  1F86               	btfss	6,7	;volatile
  7677  1652  2E8E               	goto	i1l169
  7678                           
  7679                           ;Trayectoria.c: 114: {
  7680                           ;Trayectoria.c: 115: _delay((unsigned long)((40)*(20000000/4000.0)));
  7681  1653  3002               	movlw	2
  7682  1654  1283               	bcf	3,5	;RP0=0, select bank0
  7683  1655  1303               	bcf	3,6	;RP1=0, select bank0
  7684  1656  00A7               	movwf	??_rutinainterrupciones+2
  7685  1657  3004               	movlw	4
  7686  1658  00A6               	movwf	??_rutinainterrupciones+1
  7687  1659  30B9               	movlw	185
  7688  165A  00A5               	movwf	??_rutinainterrupciones
  7689  165B                     u448_27:	
  7690  165B  0BA5               	decfsz	??_rutinainterrupciones,f
  7691  165C  2E5B               	goto	u448_27
  7692  165D  0BA6               	decfsz	??_rutinainterrupciones+1,f
  7693  165E  2E5B               	goto	u448_27
  7694  165F  0BA7               	decfsz	??_rutinainterrupciones+2,f
  7695  1660  2E5B               	goto	u448_27
  7696  1661  2E62               	nop2
  7697                           
  7698                           ;Trayectoria.c: 116: if(PORTBbits.RB7==1)
  7699  1662  1283               	bcf	3,5	;RP0=0, select bank0
  7700  1663  1303               	bcf	3,6	;RP1=0, select bank0
  7701  1664  1F86               	btfss	6,7	;volatile
  7702  1665  2F00               	goto	i1l180
  7703                           
  7704                           ;Trayectoria.c: 117: {
  7705                           ;Trayectoria.c: 119: _delay((unsigned long)((5)*(20000000/4000.0)));
  7706  1666  3021               	movlw	33
  7707  1667  1283               	bcf	3,5	;RP0=0, select bank0
  7708  1668  1303               	bcf	3,6	;RP1=0, select bank0
  7709  1669  00A6               	movwf	??_rutinainterrupciones+1
  7710  166A  3075               	movlw	117
  7711  166B  00A5               	movwf	??_rutinainterrupciones
  7712  166C                     u449_27:	
  7713  166C  0BA5               	decfsz	??_rutinainterrupciones,f
  7714  166D  2E6C               	goto	u449_27
  7715  166E  0BA6               	decfsz	??_rutinainterrupciones+1,f
  7716  166F  2E6C               	goto	u449_27
  7717  1670  2E71               	nop2
  7718                           
  7719                           ;Trayectoria.c: 122: if(ledbarra1!=0x02)
  7720  1671  3002               	movlw	2
  7721  1672  1283               	bcf	3,5	;RP0=0, select bank0
  7722  1673  1303               	bcf	3,6	;RP1=0, select bank0
  7723  1674  065D               	xorwf	_ledbarra1,w
  7724  1675  1903               	btfsc	3,2
  7725  1676  2F00               	goto	i1l180
  7726                           
  7727                           ;Trayectoria.c: 123: {
  7728                           ;Trayectoria.c: 124: ledbarra1=ledbarra1/2;
  7729  1677  3002               	movlw	2
  7730  1678  00F0               	movwf	i1___awdiv@divisor
  7731  1679  3000               	movlw	0
  7732  167A  00F1               	movwf	i1___awdiv@divisor+1
  7733  167B  085D               	movf	_ledbarra1,w
  7734  167C  00A5               	movwf	??_rutinainterrupciones
  7735  167D  01A6               	clrf	??_rutinainterrupciones+1
  7736  167E  0825               	movf	??_rutinainterrupciones,w
  7737  167F  00F2               	movwf	i1___awdiv@dividend
  7738  1680  0826               	movf	??_rutinainterrupciones+1,w
  7739  1681  00F3               	movwf	i1___awdiv@dividend+1
  7740  1682  160A  118A  2188  160A  118A  	fcall	i1___awdiv
  7741  1687  0870               	movf	?i1___awdiv,w
  7742  1688  1283               	bcf	3,5	;RP0=0, select bank0
  7743  1689  1303               	bcf	3,6	;RP1=0, select bank0
  7744  168A  00A7               	movwf	??_rutinainterrupciones+2
  7745  168B  0827               	movf	??_rutinainterrupciones+2,w
  7746  168C                     L20:	
  7747  168C  00DD               	movwf	_ledbarra1
  7748  168D  2EF6               	goto	L19
  7749  168E                     i1l169:	
  7750                           ;Trayectoria.c: 126: }
  7751                           ;Trayectoria.c: 128: }
  7752                           ;Trayectoria.c: 129: }
  7753                           
  7754                           ;Trayectoria.c: 125: barras(ledbarra1,ledbarra2);
  7755                           
  7756                           
  7757                           ;Trayectoria.c: 130: else if (PORTBbits.RB0==1)
  7758  168E  1C06               	btfss	6,0	;volatile
  7759  168F  2EBA               	goto	i1l173
  7760                           
  7761                           ;Trayectoria.c: 131: {
  7762                           ;Trayectoria.c: 132: _delay((unsigned long)((40)*(20000000/4000.0)));
  7763  1690  3002               	movlw	2
  7764  1691  1283               	bcf	3,5	;RP0=0, select bank0
  7765  1692  1303               	bcf	3,6	;RP1=0, select bank0
  7766  1693  00A7               	movwf	??_rutinainterrupciones+2
  7767  1694  3004               	movlw	4
  7768  1695  00A6               	movwf	??_rutinainterrupciones+1
  7769  1696  30B9               	movlw	185
  7770  1697  00A5               	movwf	??_rutinainterrupciones
  7771  1698                     u450_27:	
  7772  1698  0BA5               	decfsz	??_rutinainterrupciones,f
  7773  1699  2E98               	goto	u450_27
  7774  169A  0BA6               	decfsz	??_rutinainterrupciones+1,f
  7775  169B  2E98               	goto	u450_27
  7776  169C  0BA7               	decfsz	??_rutinainterrupciones+2,f
  7777  169D  2E98               	goto	u450_27
  7778  169E  2E9F               	nop2
  7779                           
  7780                           ;Trayectoria.c: 133: if(PORTBbits.RB0==1)
  7781  169F  1283               	bcf	3,5	;RP0=0, select bank0
  7782  16A0  1303               	bcf	3,6	;RP1=0, select bank0
  7783  16A1  1C06               	btfss	6,0	;volatile
  7784  16A2  2F00               	goto	i1l180
  7785                           
  7786                           ;Trayectoria.c: 134: {
  7787                           ;Trayectoria.c: 136: _delay((unsigned long)((5)*(20000000/4000.0)));
  7788  16A3  3021               	movlw	33
  7789  16A4  1283               	bcf	3,5	;RP0=0, select bank0
  7790  16A5  1303               	bcf	3,6	;RP1=0, select bank0
  7791  16A6  00A6               	movwf	??_rutinainterrupciones+1
  7792  16A7  3075               	movlw	117
  7793  16A8  00A5               	movwf	??_rutinainterrupciones
  7794  16A9                     u451_27:	
  7795  16A9  0BA5               	decfsz	??_rutinainterrupciones,f
  7796  16AA  2EA9               	goto	u451_27
  7797  16AB  0BA6               	decfsz	??_rutinainterrupciones+1,f
  7798  16AC  2EA9               	goto	u451_27
  7799  16AD  2EAE               	nop2
  7800                           
  7801                           ;Trayectoria.c: 139: if(ledbarra2!=0x40)
  7802  16AE  3040               	movlw	64
  7803  16AF  067D               	xorwf	_ledbarra2,w
  7804  16B0  1903               	btfsc	3,2
  7805  16B1  2F00               	goto	i1l180
  7806                           
  7807                           ;Trayectoria.c: 140: {
  7808                           ;Trayectoria.c: 141: ledbarra2=ledbarra2*2;
  7809  16B2  087D               	movf	_ledbarra2,w
  7810  16B3  1283               	bcf	3,5	;RP0=0, select bank0
  7811  16B4  1303               	bcf	3,6	;RP1=0, select bank0
  7812  16B5  00A5               	movwf	??_rutinainterrupciones
  7813  16B6  0725               	addwf	??_rutinainterrupciones,w
  7814  16B7  00A6               	movwf	??_rutinainterrupciones+1
  7815  16B8  0826               	movf	??_rutinainterrupciones+1,w
  7816  16B9  2EF5               	goto	L21
  7817  16BA                     i1l173:	
  7818                           ;Trayectoria.c: 143: }
  7819                           ;Trayectoria.c: 145: }
  7820                           ;Trayectoria.c: 146: }
  7821                           
  7822                           ;Trayectoria.c: 142: barras(ledbarra1,ledbarra2);
  7823                           
  7824                           
  7825                           ;Trayectoria.c: 147: else if (PORTBbits.RB1==1)
  7826  16BA  1C86               	btfss	6,1	;volatile
  7827  16BB  2F00               	goto	i1l180
  7828                           
  7829                           ;Trayectoria.c: 148: {
  7830                           ;Trayectoria.c: 149: _delay((unsigned long)((40)*(20000000/4000.0)));
  7831  16BC  3002               	movlw	2
  7832  16BD  1283               	bcf	3,5	;RP0=0, select bank0
  7833  16BE  1303               	bcf	3,6	;RP1=0, select bank0
  7834  16BF  00A7               	movwf	??_rutinainterrupciones+2
  7835  16C0  3004               	movlw	4
  7836  16C1  00A6               	movwf	??_rutinainterrupciones+1
  7837  16C2  30B9               	movlw	185
  7838  16C3  00A5               	movwf	??_rutinainterrupciones
  7839  16C4                     u452_27:	
  7840  16C4  0BA5               	decfsz	??_rutinainterrupciones,f
  7841  16C5  2EC4               	goto	u452_27
  7842  16C6  0BA6               	decfsz	??_rutinainterrupciones+1,f
  7843  16C7  2EC4               	goto	u452_27
  7844  16C8  0BA7               	decfsz	??_rutinainterrupciones+2,f
  7845  16C9  2EC4               	goto	u452_27
  7846  16CA  2ECB               	nop2
  7847                           
  7848                           ;Trayectoria.c: 150: if(PORTBbits.RB1==1)
  7849  16CB  1283               	bcf	3,5	;RP0=0, select bank0
  7850  16CC  1303               	bcf	3,6	;RP1=0, select bank0
  7851  16CD  1C86               	btfss	6,1	;volatile
  7852  16CE  2F00               	goto	i1l180
  7853                           
  7854                           ;Trayectoria.c: 151: {
  7855                           ;Trayectoria.c: 153: _delay((unsigned long)((5)*(20000000/4000.0)));
  7856  16CF  3021               	movlw	33
  7857  16D0  1283               	bcf	3,5	;RP0=0, select bank0
  7858  16D1  1303               	bcf	3,6	;RP1=0, select bank0
  7859  16D2  00A6               	movwf	??_rutinainterrupciones+1
  7860  16D3  3075               	movlw	117
  7861  16D4  00A5               	movwf	??_rutinainterrupciones
  7862  16D5                     u453_27:	
  7863  16D5  0BA5               	decfsz	??_rutinainterrupciones,f
  7864  16D6  2ED5               	goto	u453_27
  7865  16D7  0BA6               	decfsz	??_rutinainterrupciones+1,f
  7866  16D8  2ED5               	goto	u453_27
  7867  16D9  2EDA               	nop2
  7868                           
  7869                           ;Trayectoria.c: 156: if(ledbarra2!=0x02)
  7870  16DA  3002               	movlw	2
  7871  16DB  067D               	xorwf	_ledbarra2,w
  7872  16DC  1903               	btfsc	3,2
  7873  16DD  2F00               	goto	i1l180
  7874                           
  7875                           ;Trayectoria.c: 157: {
  7876                           ;Trayectoria.c: 158: ledbarra2=ledbarra2/2;
  7877  16DE  3002               	movlw	2
  7878  16DF  00F0               	movwf	i1___awdiv@divisor
  7879  16E0  3000               	movlw	0
  7880  16E1  00F1               	movwf	i1___awdiv@divisor+1
  7881  16E2  087D               	movf	_ledbarra2,w
  7882  16E3  1283               	bcf	3,5	;RP0=0, select bank0
  7883  16E4  1303               	bcf	3,6	;RP1=0, select bank0
  7884  16E5  00A5               	movwf	??_rutinainterrupciones
  7885  16E6  01A6               	clrf	??_rutinainterrupciones+1
  7886  16E7  0825               	movf	??_rutinainterrupciones,w
  7887  16E8  00F2               	movwf	i1___awdiv@dividend
  7888  16E9  0826               	movf	??_rutinainterrupciones+1,w
  7889  16EA  00F3               	movwf	i1___awdiv@dividend+1
  7890  16EB  160A  118A  2188  160A  118A  	fcall	i1___awdiv
  7891  16F0  0870               	movf	?i1___awdiv,w
  7892  16F1  1283               	bcf	3,5	;RP0=0, select bank0
  7893  16F2  1303               	bcf	3,6	;RP1=0, select bank0
  7894  16F3  00A7               	movwf	??_rutinainterrupciones+2
  7895  16F4  0827               	movf	??_rutinainterrupciones+2,w
  7896  16F5                     L21:	
  7897  16F5  00FD               	movwf	_ledbarra2
  7898  16F6                     L19:	
  7899                           
  7900                           ;Trayectoria.c: 159: barras(ledbarra1,ledbarra2);
  7901  16F6  087D               	movf	_ledbarra2,w
  7902  16F7  00A5               	movwf	??_rutinainterrupciones
  7903  16F8  0825               	movf	??_rutinainterrupciones,w
  7904  16F9  00F9               	movwf	i1barras@posicionbarra2
  7905  16FA  085D               	movf	_ledbarra1,w
  7906  16FB  160A  118A  223C  160A  118A  	fcall	i1_barras
  7907  1700                     i1l180:	
  7908  1700  1283               	bcf	3,5	;RP0=0, select bank0
  7909  1701  1303               	bcf	3,6	;RP1=0, select bank0
  7910  1702  082B               	movf	??_rutinainterrupciones+6,w
  7911  1703  00FF               	movwf	127
  7912  1704  082A               	movf	??_rutinainterrupciones+5,w
  7913  1705  008A               	movwf	10
  7914  1706  0829               	movf	??_rutinainterrupciones+4,w
  7915  1707  0084               	movwf	4
  7916  1708  0E28               	swapf	(??_rutinainterrupciones+3)^0,w
  7917  1709  0083               	movwf	3
  7918  170A  0EFE               	swapf	126,f
  7919  170B  0E7E               	swapf	126,w
  7920  170C  0009               	retfie
  7921  170D                     __end_of_rutinainterrupciones:	
  7922                           
  7923                           	psect	intentry
  7924  0004                     __pintentry:	
  7925                           ;incstack = 0
  7926                           ; Regs used in _rutinainterrupciones: [wreg+status,2+status,0+pclath+cstack]
  7927                           
  7928  0004                     interrupt_function:	
  7929  007E                     saved_w	set	btemp
  7930  0004  00FE               	movwf	btemp
  7931  0005  0E03               	swapf	3,w
  7932  0006  1283               	bcf	3,5	;RP0=0, select bank0
  7933  0007  1303               	bcf	3,6	;RP1=0, select bank0
  7934  0008  00A8               	movwf	??_rutinainterrupciones+3
  7935  0009  0804               	movf	4,w
  7936  000A  00A9               	movwf	??_rutinainterrupciones+4
  7937  000B  080A               	movf	10,w
  7938  000C  00AA               	movwf	??_rutinainterrupciones+5
  7939  000D  087F               	movf	btemp+1,w
  7940  000E  00AB               	movwf	??_rutinainterrupciones+6
  7941  000F  160A  118A  2E22   	ljmp	_rutinainterrupciones
  7942                           
  7943                           	psect	text20
  7944  123C                     __ptext20:	
  7945 ;; *************** function i1_barras *****************
  7946 ;; Defined at:
  7947 ;;		line 1045 in file "Trayectoria.c"
  7948 ;; Parameters:    Size  Location     Type
  7949 ;;  posicionbarr    1    wreg     unsigned char 
  7950 ;;  posicionbarr    1    9[COMMON] unsigned char 
  7951 ;; Auto vars:     Size  Location     Type
  7952 ;;  posicionbarr    1   10[COMMON] unsigned char 
  7953 ;;  barras          1   12[COMMON] unsigned char 
  7954 ;;  barras          1   11[COMMON] unsigned char 
  7955 ;; Return value:  Size  Location     Type
  7956 ;;                  1    wreg      void 
  7957 ;; Registers used:
  7958 ;;		wreg, status,2, status,0, pclath, cstack
  7959 ;; Tracked objects:
  7960 ;;		On entry : 0/0
  7961 ;;		On exit  : 0/0
  7962 ;;		Unchanged: 0/0
  7963 ;; Data sizes:     COMMON   BANK0   BANK1   BANK3   BANK2
  7964 ;;      Params:         1       0       0       0       0
  7965 ;;      Locals:         3       0       0       0       0
  7966 ;;      Temps:          0       5       0       0       0
  7967 ;;      Totals:         4       5       0       0       0
  7968 ;;Total ram usage:        9 bytes
  7969 ;; Hardware stack levels used:    1
  7970 ;; Hardware stack levels required when called:    1
  7971 ;; This function calls:
  7972 ;;		i1___awdiv
  7973 ;;		i1_enviardato
  7974 ;;		i1_enviardato2
  7975 ;; This function is called by:
  7976 ;;		_rutinainterrupciones
  7977 ;; This function uses a non-reentrant model
  7978 ;;
  7979                           
  7980                           
  7981                           ;psect for function i1_barras
  7982  123C                     i1_barras:	
  7983                           
  7984                           ;incstack = 0
  7985                           ; Regs used in i1_barras: [wreg+status,2+status,0+pclath+cstack]
  7986                           ;i1barras@posicionbarra1 stored from wreg
  7987  123C  00FA               	movwf	i1barras@posicionbarra1
  7988                           
  7989                           ;Trayectoria.c: 1048: unsigned char barrafinal1=0;
  7990  123D  01FB               	clrf	i1barras@barrafinal1
  7991                           
  7992                           ;Trayectoria.c: 1049: barrafinal1=posicionbarra1+(2*posicionbarra1)+(posicionbarra1/2);
  7993  123E  087A               	movf	i1barras@posicionbarra1,w
  7994  123F  1283               	bcf	3,5	;RP0=0, select bank0
  7995  1240  1303               	bcf	3,6	;RP1=0, select bank0
  7996  1241  00A0               	movwf	??i1_barras
  7997  1242  3001               	movlw	1
  7998  1243                     u324_25:	
  7999  1243  1003               	clrc
  8000  1244  0DA0               	rlf	??i1_barras,f
  8001  1245  3EFF               	addlw	-1
  8002  1246  1D03               	skipz
  8003  1247  2A43               	goto	u324_25
  8004  1248  3002               	movlw	2
  8005  1249  00F0               	movwf	i1___awdiv@divisor
  8006  124A  3000               	movlw	0
  8007  124B  00F1               	movwf	i1___awdiv@divisor+1
  8008  124C  087A               	movf	i1barras@posicionbarra1,w
  8009  124D  00A1               	movwf	??i1_barras+1
  8010  124E  01A2               	clrf	??i1_barras+2
  8011  124F  0821               	movf	??i1_barras+1,w
  8012  1250  00F2               	movwf	i1___awdiv@dividend
  8013  1251  0822               	movf	??i1_barras+2,w
  8014  1252  00F3               	movwf	i1___awdiv@dividend+1
  8015  1253  160A  118A  2188  160A  118A  	fcall	i1___awdiv
  8016  1258  0870               	movf	?i1___awdiv,w
  8017  1259  1283               	bcf	3,5	;RP0=0, select bank0
  8018  125A  1303               	bcf	3,6	;RP1=0, select bank0
  8019  125B  0720               	addwf	??i1_barras,w
  8020  125C  00A3               	movwf	??i1_barras+3
  8021  125D  087A               	movf	i1barras@posicionbarra1,w
  8022  125E  0723               	addwf	??i1_barras+3,w
  8023  125F  00A4               	movwf	??i1_barras+4
  8024  1260  0824               	movf	??i1_barras+4,w
  8025  1261  00FB               	movwf	i1barras@barrafinal1
  8026                           
  8027                           ;Trayectoria.c: 1050: enviardato(0x01,barrafinal1);
  8028  1262  087B               	movf	i1barras@barrafinal1,w
  8029  1263  00A0               	movwf	??i1_barras
  8030  1264  0820               	movf	??i1_barras,w
  8031  1265  00F0               	movwf	i1enviardato@dato
  8032  1266  3001               	movlw	1
  8033  1267  160A  118A  20EC  160A  118A  	fcall	i1_enviardato
  8034                           
  8035                           ;Trayectoria.c: 1052: unsigned char barrafinal2=0;
  8036  126C  01FC               	clrf	i1barras@barrafinal2
  8037                           
  8038                           ;Trayectoria.c: 1053: barrafinal2=posicionbarra2+(2*posicionbarra2)+(posicionbarra2/2);
  8039  126D  0879               	movf	i1barras@posicionbarra2,w
  8040  126E  1283               	bcf	3,5	;RP0=0, select bank0
  8041  126F  1303               	bcf	3,6	;RP1=0, select bank0
  8042  1270  00A0               	movwf	??i1_barras
  8043  1271  3001               	movlw	1
  8044  1272                     u325_25:	
  8045  1272  1003               	clrc
  8046  1273  0DA0               	rlf	??i1_barras,f
  8047  1274  3EFF               	addlw	-1
  8048  1275  1D03               	skipz
  8049  1276  2A72               	goto	u325_25
  8050  1277  3002               	movlw	2
  8051  1278  00F0               	movwf	i1___awdiv@divisor
  8052  1279  3000               	movlw	0
  8053  127A  00F1               	movwf	i1___awdiv@divisor+1
  8054  127B  0879               	movf	i1barras@posicionbarra2,w
  8055  127C  00A1               	movwf	??i1_barras+1
  8056  127D  01A2               	clrf	??i1_barras+2
  8057  127E  0821               	movf	??i1_barras+1,w
  8058  127F  00F2               	movwf	i1___awdiv@dividend
  8059  1280  0822               	movf	??i1_barras+2,w
  8060  1281  00F3               	movwf	i1___awdiv@dividend+1
  8061  1282  160A  118A  2188  160A  118A  	fcall	i1___awdiv
  8062  1287  0870               	movf	?i1___awdiv,w
  8063  1288  1283               	bcf	3,5	;RP0=0, select bank0
  8064  1289  1303               	bcf	3,6	;RP1=0, select bank0
  8065  128A  0720               	addwf	??i1_barras,w
  8066  128B  00A3               	movwf	??i1_barras+3
  8067  128C  0879               	movf	i1barras@posicionbarra2,w
  8068  128D  0723               	addwf	??i1_barras+3,w
  8069  128E  00A4               	movwf	??i1_barras+4
  8070  128F  0824               	movf	??i1_barras+4,w
  8071  1290  00FC               	movwf	i1barras@barrafinal2
  8072                           
  8073                           ;Trayectoria.c: 1054: enviardato2(0x08,barrafinal2);
  8074  1291  087C               	movf	i1barras@barrafinal2,w
  8075  1292  00A0               	movwf	??i1_barras
  8076  1293  0820               	movf	??i1_barras,w
  8077  1294  00F0               	movwf	i1enviardato2@dato
  8078  1295  3008               	movlw	8
  8079  1296  160A  118A  210A   	fcall	i1_enviardato2
  8080  1299  0008               	return
  8081  129A                     __end_ofi1_barras:	
  8082                           
  8083                           	psect	text21
  8084  110A                     __ptext21:	
  8085 ;; *************** function i1_enviardato2 *****************
  8086 ;; Defined at:
  8087 ;;		line 361 in file "Trayectoria.c"
  8088 ;; Parameters:    Size  Location     Type
  8089 ;;  direccion       1    wreg     unsigned char 
  8090 ;;  dato            1    0[COMMON] unsigned char 
  8091 ;; Auto vars:     Size  Location     Type
  8092 ;;  direccion       1    3[COMMON] unsigned char 
  8093 ;; Return value:  Size  Location     Type
  8094 ;;                  1    wreg      void 
  8095 ;; Registers used:
  8096 ;;		wreg
  8097 ;; Tracked objects:
  8098 ;;		On entry : 0/0
  8099 ;;		On exit  : 0/0
  8100 ;;		Unchanged: 0/0
  8101 ;; Data sizes:     COMMON   BANK0   BANK1   BANK3   BANK2
  8102 ;;      Params:         1       0       0       0       0
  8103 ;;      Locals:         1       0       0       0       0
  8104 ;;      Temps:          2       0       0       0       0
  8105 ;;      Totals:         4       0       0       0       0
  8106 ;;Total ram usage:        4 bytes
  8107 ;; Hardware stack levels used:    1
  8108 ;; This function calls:
  8109 ;;		Nothing
  8110 ;; This function is called by:
  8111 ;;		i1_barras
  8112 ;; This function uses a non-reentrant model
  8113 ;;
  8114                           
  8115                           
  8116                           ;psect for function i1_enviardato2
  8117  110A                     i1_enviardato2:	
  8118                           
  8119                           ;incstack = 0
  8120                           ; Regs used in i1_enviardato2: [wreg]
  8121                           ;i1enviardato2@direccion stored from wreg
  8122  110A  00F3               	movwf	i1enviardato2@direccion
  8123                           
  8124                           ;Trayectoria.c: 363: PORTCbits.RC7=0;
  8125  110B  1283               	bcf	3,5	;RP0=0, select bank0
  8126  110C  1303               	bcf	3,6	;RP1=0, select bank0
  8127  110D  1387               	bcf	7,7	;volatile
  8128                           
  8129                           ;Trayectoria.c: 365: SSPBUF=direccion;
  8130  110E  0873               	movf	i1enviardato2@direccion,w
  8131  110F  0093               	movwf	19	;volatile
  8132  1110                     i1l248:	
  8133                           ;Trayectoria.c: 366: while(SSPSTATbits.BF==0);
  8134                           
  8135  1110  1683               	bsf	3,5	;RP0=1, select bank1
  8136  1111  1303               	bcf	3,6	;RP1=0, select bank1
  8137  1112  1C14               	btfss	20,0	;volatile
  8138  1113  2910               	goto	i1l248
  8139                           
  8140                           ;Trayectoria.c: 367: SSPBUF=dato;
  8141  1114  0870               	movf	i1enviardato2@dato,w
  8142  1115  1283               	bcf	3,5	;RP0=0, select bank0
  8143  1116  1303               	bcf	3,6	;RP1=0, select bank0
  8144  1117  0093               	movwf	19	;volatile
  8145  1118                     i1l251:	
  8146                           ;Trayectoria.c: 368: while(SSPSTATbits.BF==0);
  8147                           
  8148  1118  1683               	bsf	3,5	;RP0=1, select bank1
  8149  1119  1303               	bcf	3,6	;RP1=0, select bank1
  8150  111A  1C14               	btfss	20,0	;volatile
  8151  111B  2918               	goto	i1l251
  8152                           
  8153                           ;Trayectoria.c: 369: _delay((unsigned long)((1)*(20000000/4000.0)));
  8154  111C  3007               	movlw	7
  8155  111D  00F2               	movwf	??i1_enviardato2+1
  8156  111E  307D               	movlw	125
  8157  111F  00F1               	movwf	??i1_enviardato2
  8158  1120                     u454_27:	
  8159  1120  0BF1               	decfsz	??i1_enviardato2,f
  8160  1121  2920               	goto	u454_27
  8161  1122  0BF2               	decfsz	??i1_enviardato2+1,f
  8162  1123  2920               	goto	u454_27
  8163                           
  8164                           ;Trayectoria.c: 371: PORTCbits.RC7=1;
  8165  1124  1283               	bcf	3,5	;RP0=0, select bank0
  8166  1125  1303               	bcf	3,6	;RP1=0, select bank0
  8167  1126  1787               	bsf	7,7	;volatile
  8168  1127  0008               	return
  8169  1128                     __end_ofi1_enviardato2:	
  8170                           
  8171                           	psect	text22
  8172  10EC                     __ptext22:	
  8173 ;; *************** function i1_enviardato *****************
  8174 ;; Defined at:
  8175 ;;		line 329 in file "Trayectoria.c"
  8176 ;; Parameters:    Size  Location     Type
  8177 ;;  direccion       1    wreg     unsigned char 
  8178 ;;  dato            1    0[COMMON] unsigned char 
  8179 ;; Auto vars:     Size  Location     Type
  8180 ;;  direccion       1    3[COMMON] unsigned char 
  8181 ;; Return value:  Size  Location     Type
  8182 ;;                  1    wreg      void 
  8183 ;; Registers used:
  8184 ;;		wreg
  8185 ;; Tracked objects:
  8186 ;;		On entry : 0/0
  8187 ;;		On exit  : 0/0
  8188 ;;		Unchanged: 0/0
  8189 ;; Data sizes:     COMMON   BANK0   BANK1   BANK3   BANK2
  8190 ;;      Params:         1       0       0       0       0
  8191 ;;      Locals:         1       0       0       0       0
  8192 ;;      Temps:          2       0       0       0       0
  8193 ;;      Totals:         4       0       0       0       0
  8194 ;;Total ram usage:        4 bytes
  8195 ;; Hardware stack levels used:    1
  8196 ;; This function calls:
  8197 ;;		Nothing
  8198 ;; This function is called by:
  8199 ;;		i1_barras
  8200 ;; This function uses a non-reentrant model
  8201 ;;
  8202                           
  8203                           
  8204                           ;psect for function i1_enviardato
  8205  10EC                     i1_enviardato:	
  8206                           
  8207                           ;incstack = 0
  8208                           ; Regs used in i1_enviardato: [wreg]
  8209                           ;i1enviardato@direccion stored from wreg
  8210  10EC  00F3               	movwf	i1enviardato@direccion
  8211                           
  8212                           ;Trayectoria.c: 331: PORTCbits.RC0=0;
  8213  10ED  1283               	bcf	3,5	;RP0=0, select bank0
  8214  10EE  1303               	bcf	3,6	;RP1=0, select bank0
  8215  10EF  1007               	bcf	7,0	;volatile
  8216                           
  8217                           ;Trayectoria.c: 333: SSPBUF=direccion;
  8218  10F0  0873               	movf	i1enviardato@direccion,w
  8219  10F1  0093               	movwf	19	;volatile
  8220  10F2                     i1l224:	
  8221                           ;Trayectoria.c: 334: while(SSPSTATbits.BF==0);
  8222                           
  8223  10F2  1683               	bsf	3,5	;RP0=1, select bank1
  8224  10F3  1303               	bcf	3,6	;RP1=0, select bank1
  8225  10F4  1C14               	btfss	20,0	;volatile
  8226  10F5  28F2               	goto	i1l224
  8227                           
  8228                           ;Trayectoria.c: 335: SSPBUF=dato;
  8229  10F6  0870               	movf	i1enviardato@dato,w
  8230  10F7  1283               	bcf	3,5	;RP0=0, select bank0
  8231  10F8  1303               	bcf	3,6	;RP1=0, select bank0
  8232  10F9  0093               	movwf	19	;volatile
  8233  10FA                     i1l227:	
  8234                           ;Trayectoria.c: 336: while(SSPSTATbits.BF==0);
  8235                           
  8236  10FA  1683               	bsf	3,5	;RP0=1, select bank1
  8237  10FB  1303               	bcf	3,6	;RP1=0, select bank1
  8238  10FC  1C14               	btfss	20,0	;volatile
  8239  10FD  28FA               	goto	i1l227
  8240                           
  8241                           ;Trayectoria.c: 337: _delay((unsigned long)((1)*(20000000/4000.0)));
  8242  10FE  3007               	movlw	7
  8243  10FF  00F2               	movwf	??i1_enviardato+1
  8244  1100  307D               	movlw	125
  8245  1101  00F1               	movwf	??i1_enviardato
  8246  1102                     u455_27:	
  8247  1102  0BF1               	decfsz	??i1_enviardato,f
  8248  1103  2902               	goto	u455_27
  8249  1104  0BF2               	decfsz	??i1_enviardato+1,f
  8250  1105  2902               	goto	u455_27
  8251                           
  8252                           ;Trayectoria.c: 339: PORTCbits.RC0=1;
  8253  1106  1283               	bcf	3,5	;RP0=0, select bank0
  8254  1107  1303               	bcf	3,6	;RP1=0, select bank0
  8255  1108  1407               	bsf	7,0	;volatile
  8256  1109  0008               	return
  8257  110A                     __end_ofi1_enviardato:	
  8258                           
  8259                           	psect	text23
  8260  1188                     __ptext23:	
  8261 ;; *************** function i1___awdiv *****************
  8262 ;; Defined at:
  8263 ;;		line 6 in file "C:\Program Files (x86)\Microchip\xc8\v1.45\sources\common\awdiv.c"
  8264 ;; Parameters:    Size  Location     Type
  8265 ;;  divisor         2    0[COMMON] int 
  8266 ;;  dividend        2    2[COMMON] int 
  8267 ;; Auto vars:     Size  Location     Type
  8268 ;;  __awdiv         2    7[COMMON] int 
  8269 ;;  __awdiv         1    6[COMMON] unsigned char 
  8270 ;;  __awdiv         1    5[COMMON] unsigned char 
  8271 ;; Return value:  Size  Location     Type
  8272 ;;                  2    0[COMMON] int 
  8273 ;; Registers used:
  8274 ;;		wreg, status,2, status,0
  8275 ;; Tracked objects:
  8276 ;;		On entry : 0/0
  8277 ;;		On exit  : 0/0
  8278 ;;		Unchanged: 0/0
  8279 ;; Data sizes:     COMMON   BANK0   BANK1   BANK3   BANK2
  8280 ;;      Params:         4       0       0       0       0
  8281 ;;      Locals:         4       0       0       0       0
  8282 ;;      Temps:          1       0       0       0       0
  8283 ;;      Totals:         9       0       0       0       0
  8284 ;;Total ram usage:        9 bytes
  8285 ;; Hardware stack levels used:    1
  8286 ;; This function calls:
  8287 ;;		Nothing
  8288 ;; This function is called by:
  8289 ;;		_rutinainterrupciones
  8290 ;;		i1_barras
  8291 ;; This function uses a non-reentrant model
  8292 ;;
  8293                           
  8294                           
  8295                           ;psect for function i1___awdiv
  8296  1188                     i1___awdiv:	
  8297                           
  8298                           ;incstack = 0
  8299                           ; Regs used in i1___awdiv: [wreg+status,2+status,0]
  8300  1188  01F6               	clrf	i1___awdiv@sign
  8301  1189  1FF1               	btfss	i1___awdiv@divisor+1,7
  8302  118A  2992               	goto	i1l2618
  8303  118B  09F0               	comf	i1___awdiv@divisor,f
  8304  118C  09F1               	comf	i1___awdiv@divisor+1,f
  8305  118D  0AF0               	incf	i1___awdiv@divisor,f
  8306  118E  1903               	skipnz
  8307  118F  0AF1               	incf	i1___awdiv@divisor+1,f
  8308  1190  01F6               	clrf	i1___awdiv@sign
  8309  1191  0AF6               	incf	i1___awdiv@sign,f
  8310  1192                     i1l2618:	
  8311  1192  1FF3               	btfss	i1___awdiv@dividend+1,7
  8312  1193  299D               	goto	i1l2624
  8313  1194  09F2               	comf	i1___awdiv@dividend,f
  8314  1195  09F3               	comf	i1___awdiv@dividend+1,f
  8315  1196  0AF2               	incf	i1___awdiv@dividend,f
  8316  1197  1903               	skipnz
  8317  1198  0AF3               	incf	i1___awdiv@dividend+1,f
  8318  1199  3001               	movlw	1
  8319  119A  00F4               	movwf	??i1___awdiv
  8320  119B  0874               	movf	??i1___awdiv,w
  8321  119C  06F6               	xorwf	i1___awdiv@sign,f
  8322  119D                     i1l2624:	
  8323  119D  01F7               	clrf	i1___awdiv@quotient
  8324  119E  01F8               	clrf	i1___awdiv@quotient+1
  8325  119F  0870               	movf	i1___awdiv@divisor,w
  8326  11A0  0471               	iorwf	i1___awdiv@divisor+1,w
  8327  11A1  1903               	btfsc	3,2
  8328  11A2  29D4               	goto	i1l2646
  8329  11A3  01F5               	clrf	i1___awdiv@counter
  8330  11A4  0AF5               	incf	i1___awdiv@counter,f
  8331  11A5                     i1l2634:	
  8332  11A5  1BF1               	btfsc	i1___awdiv@divisor+1,7
  8333  11A6  29B3               	goto	i1l2636
  8334  11A7  3001               	movlw	1
  8335  11A8                     u249_25:	
  8336  11A8  1003               	clrc
  8337  11A9  0DF0               	rlf	i1___awdiv@divisor,f
  8338  11AA  0DF1               	rlf	i1___awdiv@divisor+1,f
  8339  11AB  3EFF               	addlw	-1
  8340  11AC  1D03               	skipz
  8341  11AD  29A8               	goto	u249_25
  8342  11AE  3001               	movlw	1
  8343  11AF  00F4               	movwf	??i1___awdiv
  8344  11B0  0874               	movf	??i1___awdiv,w
  8345  11B1  07F5               	addwf	i1___awdiv@counter,f
  8346  11B2  29A5               	goto	i1l2634
  8347  11B3                     i1l2636:	
  8348  11B3  3001               	movlw	1
  8349  11B4                     u251_25:	
  8350  11B4  1003               	clrc
  8351  11B5  0DF7               	rlf	i1___awdiv@quotient,f
  8352  11B6  0DF8               	rlf	i1___awdiv@quotient+1,f
  8353  11B7  3EFF               	addlw	-1
  8354  11B8  1D03               	skipz
  8355  11B9  29B4               	goto	u251_25
  8356  11BA  0871               	movf	i1___awdiv@divisor+1,w
  8357  11BB  0273               	subwf	i1___awdiv@dividend+1,w
  8358  11BC  1D03               	skipz
  8359  11BD  29C0               	goto	u252_25
  8360  11BE  0870               	movf	i1___awdiv@divisor,w
  8361  11BF  0272               	subwf	i1___awdiv@dividend,w
  8362  11C0                     u252_25:	
  8363  11C0  1C03               	skipc
  8364  11C1  29C9               	goto	i1l2642
  8365  11C2  0870               	movf	i1___awdiv@divisor,w
  8366  11C3  02F2               	subwf	i1___awdiv@dividend,f
  8367  11C4  0871               	movf	i1___awdiv@divisor+1,w
  8368  11C5  1C03               	skipc
  8369  11C6  03F3               	decf	i1___awdiv@dividend+1,f
  8370  11C7  02F3               	subwf	i1___awdiv@dividend+1,f
  8371  11C8  1477               	bsf	i1___awdiv@quotient,0
  8372  11C9                     i1l2642:	
  8373  11C9  3001               	movlw	1
  8374  11CA                     u253_25:	
  8375  11CA  1003               	clrc
  8376  11CB  0CF1               	rrf	i1___awdiv@divisor+1,f
  8377  11CC  0CF0               	rrf	i1___awdiv@divisor,f
  8378  11CD  3EFF               	addlw	-1
  8379  11CE  1D03               	skipz
  8380  11CF  29CA               	goto	u253_25
  8381  11D0  3001               	movlw	1
  8382  11D1  02F5               	subwf	i1___awdiv@counter,f
  8383  11D2  1D03               	btfss	3,2
  8384  11D3  29B3               	goto	i1l2636
  8385  11D4                     i1l2646:	
  8386  11D4  0876               	movf	i1___awdiv@sign,w
  8387  11D5  1903               	btfsc	3,2
  8388  11D6  29DC               	goto	i1l2650
  8389  11D7  09F7               	comf	i1___awdiv@quotient,f
  8390  11D8  09F8               	comf	i1___awdiv@quotient+1,f
  8391  11D9  0AF7               	incf	i1___awdiv@quotient,f
  8392  11DA  1903               	skipnz
  8393  11DB  0AF8               	incf	i1___awdiv@quotient+1,f
  8394  11DC                     i1l2650:	
  8395  11DC  0878               	movf	i1___awdiv@quotient+1,w
  8396  11DD  00F1               	movwf	?i1___awdiv+1
  8397  11DE  0877               	movf	i1___awdiv@quotient,w
  8398  11DF  00F0               	movwf	?i1___awdiv
  8399  11E0  0008               	return
  8400  11E1                     __end_ofi1___awdiv:	
  8401  007E                     btemp	set	126	;btemp
  8402  007E                     wtemp0	set	126


Data Sizes:
    Strings     0
    Constant    0
    Data        8
    BSS         66
    Persistent  0
    Stack       0

Auto Spaces:
    Space          Size  Autos    Used
    COMMON           14     13      14
    BANK0            80     49      66
    BANK1            80     14      70
    BANK3            96      0       0
    BANK2            96      0       0

Pointer List with Targets:

    None.

Critical Paths under _main in COMMON

    None.

Critical Paths under _rutinainterrupciones in COMMON

    _rutinainterrupciones->i1_barras
    i1_barras->i1___awdiv

Critical Paths under _main in BANK0

    _Posicioninicial->_barras
    _Juego->___fttol
    ___lbtoft->___ftpack
    ___fttol->___ftmul
    ___ftmul->___lbtoft
    _Saque->_barras
    _barras->___awdiv
    _Marcador->_enviardato
    _Marcador->_enviardato0
    _Marcador->_enviardato2
    _Gol->_enviardato
    _Gol->_enviardato0
    _Gol->_enviardato2
    _InitSPI->_enviardato0

Critical Paths under _rutinainterrupciones in BANK0

    _rutinainterrupciones->i1_barras

Critical Paths under _main in BANK1

    _main->_Juego
    _Juego->___fttol

Critical Paths under _rutinainterrupciones in BANK1

    None.

Critical Paths under _main in BANK3

    None.

Critical Paths under _rutinainterrupciones in BANK3

    None.

Critical Paths under _main in BANK2

    None.

Critical Paths under _rutinainterrupciones in BANK2

    None.

Call Graph Tables:

 ---------------------------------------------------------------------------------
 (Depth) Function   	        Calls       Base Space   Used Autos Params    Refs
 ---------------------------------------------------------------------------------
 (0) _main                                                 1     1      0  141455
                                             48 BANK0      1     1      0
                             _InitES
                            _InitSPI
                           _InitTMR1
                              _Juego
                    _Posicioninicial
                             _barras
                         _enviardato
                        _enviardato0
                        _enviardato2
                     _inicializacion
 ---------------------------------------------------------------------------------
 (1) _inicializacion                                       2     2      0       0
                                             12 BANK0      2     2      0
 ---------------------------------------------------------------------------------
 (1) _Posicioninicial                                      3     3      0   26564
                                             30 BANK0      3     3      0
                            ___awdiv
                             _barras
                         _enviardato
                        _enviardato2
 ---------------------------------------------------------------------------------
 (1) _Juego                                                4     4      0   84979
                                             10 BANK1      4     4      0
                                _Gol
                           _Marcador
                              _Saque
                            ___awdiv
                            ___ftmul
                            ___fttol
                           ___lbtoft
                             _barras
                         _enviardato
                        _enviardato2
 ---------------------------------------------------------------------------------
 (2) ___lbtoft                                             8     5      3    2014
                                             20 BANK0      8     5      3
                           ___ftpack
 ---------------------------------------------------------------------------------
 (2) ___fttol                                             14    10      4    1295
                                             44 BANK0      4     0      4
                                              0 BANK1     10    10      0
                            ___ftmul (ARG)
                           ___lbtoft (ARG)
 ---------------------------------------------------------------------------------
 (2) ___ftmul                                             16    10      6    3854
                                             28 BANK0     16    10      6
                           ___ftpack
                           ___lbtoft (ARG)
 ---------------------------------------------------------------------------------
 (3) ___ftpack                                             8     3      5    1992
                                             12 BANK0      8     3      5
 ---------------------------------------------------------------------------------
 (2) _Saque                                                1     1      0   26924
                                             30 BANK0      1     1      0
                             _barras
                         _enviardato
                        _enviardato0
                        _enviardato2
 ---------------------------------------------------------------------------------
 (1) _barras                                               9     8      1   14760
                                             21 BANK0      9     8      1
                            ___awdiv
                         _enviardato
                        _enviardato2
 ---------------------------------------------------------------------------------
 (2) ___awdiv                                              9     5      4    2628
                                             12 BANK0      9     5      4
 ---------------------------------------------------------------------------------
 (2) _Marcador                                             3     3      0   12164
                                             16 BANK0      3     3      0
                         _enviardato
                        _enviardato0
                        _enviardato2
 ---------------------------------------------------------------------------------
 (2) _Gol                                                  3     3      0   12164
                                             16 BANK0      3     3      0
                         _enviardato
                        _enviardato0
                        _enviardato2
 ---------------------------------------------------------------------------------
 (1) _enviardato2                                          4     3      1    4524
                                             12 BANK0      4     3      1
 ---------------------------------------------------------------------------------
 (1) _enviardato                                           4     3      1    4652
                                             12 BANK0      4     3      1
 ---------------------------------------------------------------------------------
 (1) _InitTMR1                                             0     0      0       0
 ---------------------------------------------------------------------------------
 (1) _InitSPI                                              1     1      0    2988
                                             16 BANK0      1     1      0
                        _enviardato0
 ---------------------------------------------------------------------------------
 (1) _enviardato0                                          4     3      1    2988
                                             12 BANK0      4     3      1
 ---------------------------------------------------------------------------------
 (1) _InitES                                               0     0      0       0
 ---------------------------------------------------------------------------------
 Estimated maximum stack depth 3
 ---------------------------------------------------------------------------------
 (Depth) Function   	        Calls       Base Space   Used Autos Params    Refs
 ---------------------------------------------------------------------------------
 (5) _rutinainterrupciones                                 7     7      0    1440
                                              5 BANK0      7     7      0
                          i1___awdiv
                           i1_barras
 ---------------------------------------------------------------------------------
 (6) i1_barras                                             9     8      1     932
                                              9 COMMON     4     3      1
                                              0 BANK0      5     5      0
                          i1___awdiv
                       i1_enviardato
                      i1_enviardato2
 ---------------------------------------------------------------------------------
 (7) i1_enviardato2                                        4     3      1      70
                                              0 COMMON     4     3      1
 ---------------------------------------------------------------------------------
 (7) i1_enviardato                                         4     3      1      70
                                              0 COMMON     4     3      1
 ---------------------------------------------------------------------------------
 (7) i1___awdiv                                            9     5      4     508
                                              0 COMMON     9     5      4
 ---------------------------------------------------------------------------------
 Estimated maximum stack depth 7
 ---------------------------------------------------------------------------------

 Call Graph Graphs:

 _main (ROOT)
   _InitES
   _InitSPI
     _enviardato0
   _InitTMR1
   _Juego
     _Gol
       _enviardato
       _enviardato0
       _enviardato2
     _Marcador
       _enviardato
       _enviardato0
       _enviardato2
     _Saque
       _barras
         ___awdiv
         _enviardato
         _enviardato2
       _enviardato
       _enviardato0
       _enviardato2
     ___awdiv
     ___ftmul
       ___ftpack
       ___lbtoft (ARG)
         ___ftpack
     ___fttol
       ___ftmul (ARG)
         ___ftpack
         ___lbtoft (ARG)
           ___ftpack
       ___lbtoft (ARG)
         ___ftpack
     ___lbtoft
       ___ftpack
     _barras
       ___awdiv
       _enviardato
       _enviardato2
     _enviardato
     _enviardato2
   _Posicioninicial
     ___awdiv
     _barras
       ___awdiv
       _enviardato
       _enviardato2
     _enviardato
     _enviardato2
   _barras
     ___awdiv
     _enviardato
     _enviardato2
   _enviardato
   _enviardato0
   _enviardato2
   _inicializacion

 _rutinainterrupciones (ROOT)
   i1___awdiv
   i1_barras
     i1___awdiv
     i1_enviardato
     i1_enviardato2

 Address spaces:
Name               Size   Autos  Total    Cost      Usage
BANK3               60      0       0       9        0.0%
BITBANK3            60      0       0       8        0.0%
SFR3                 0      0       0       4        0.0%
BITSFR3              0      0       0       4        0.0%
BANK2               60      0       0      11        0.0%
BITBANK2            60      0       0      10        0.0%
SFR2                 0      0       0       5        0.0%
BITSFR2              0      0       0       5        0.0%
BANK1               50      E      46       7       87.5%
BITBANK1            50      0       0       6        0.0%
SFR1                 0      0       0       2        0.0%
BITSFR1              0      0       0       2        0.0%
BANK0               50     31      42       5       82.5%
BITBANK0            50      0       0       4        0.0%
SFR0                 0      0       0       1        0.0%
BITSFR0              0      0       0       1        0.0%
COMMON               E      D       E       1      100.0%
BITCOMMON            E      0       0       0        0.0%
CODE                 0      0       0       0        0.0%
DATA                 0      0      96      12        0.0%
ABS                  0      0      96       3        0.0%
NULL                 0      0       0       0        0.0%
STACK                0      0       0       2        0.0%
EEDATA             100      0       0       0        0.0%


Microchip Technology PIC Macro Assembler V1.45 build -152302408 
Symbol Table                                                                                   Tue Jul 03 12:29:49 2018

                            pc 0002                    __CFG_CP$OFF 0000                    _SSPSTATbits 0094  
                 ___awdiv@sign 0032                             fsr 0004                            l215 07D1  
                          l224 114C                            l218 07D9                            l227 1154  
                          l251 1175                            l341 02B9                            l325 0204  
                          l248 116D                            l339 0282                            l364 0472  
                          l292 09F5                            l284 099C                            l277 0956  
                          l197 085D                            l198 093D                            l383 065C  
                          l714 1345                            l394 079E                            l715 134D  
                          l707 1330                            l387 0713                            l379 05F5  
                          l299 0A3B                            l798 1525                   __CFG_CPD$OFF 0000  
                          _Gol 170D                            _min 00D3                            _seg 00D5  
                          fsr0 0004                            indf 0000                   __CFG_IESO$ON 0000  
                 __CFG_FOSC$HS 0000                   __CFG_LVP$OFF 0000                           ?_Gol 0070  
                         l2410 0C21                           l2314 11F8                           l2420 0CF2  
                         l2412 0C2E                           l2340 1237                           l2332 1224  
                         l2324 1200                           l2308 11ED                           l2500 1567  
                         l2422 0D23                           l2414 0C5F                           l2430 0DE7  
                         l2326 120E                           l2440 0EA8                           l2432 0E0A  
                         l2424 0D54                           l2416 0C90                           l2336 122F  
                         l2450 0F9D                           l2442 0ED9                           l2434 0E15  
                         l2426 0D85                           l2418 0CC1                           l2370 1302  
                         l2530 15E4                           l2522 15CC                           l2506 157D  
                         l3410 14AC                           l2444 0F0A                           l2436 0E46  
                         l2428 0DB6                           l2452 0FCE                           l2446 0F3B  
                         l2438 0E77                           l2454 0FF0                           l2374 1309  
                         l2534 15F4                           l2518 15BC                           l3430 1509  
                         l3510 003B                           l2448 0F6C                           l2384 1335  
                         l2376 1315                           l3600 0452                           l2386 133F  
                         l2378 131A                           l3442 1538                           l3530 0265  
                         l3514 021D                           l2492 147B                           l2484 145D  
                         l3436 1518                           l3428 14F7                           l3700 0758  
                         l3604 0454                           l3438 152A                           l3462 009E  
                         l3712 07B6                           l3632 04E9                           l3616 048B  
                         l3536 0286                           l3472 00CD                           l3650 059C  
                         l3642 057C                           l3570 039E                           l3562 0319  
                         l3490 018A                           l3458 0087                           l3548 02D2  
                         l3476 00E4                           l3740 0848                           l3732 0839  
                         l3646 0592                           l3574 03B4                           l3494 01A7  
                         l3486 0173                           l2934 098A                           l3742 0849  
                         l3726 082D                           l3664 0606                           l3578 03BE  
                         l3498 01BE                           l2954 09E0                           l3746 0851  
                         l3738 083B                           l3692 0724                           l3596 041D  
                         l3748 0855                           l3678 066D                           l3696 0741  
                         l2978 0A29                           _IOCB 0096                           u2125 1354  
                         u2045 130E                           u2205 1589                           u2215 159B  
                         u2065 1329                           u2305 15FD                           u2085 1338  
                         u2245 15CD                           u2255 15D5                           u4035 073F  
                         u4045 0787                           u2295 15F5                           u4207 0ADC  
                         u4217 0AEA                           u1915 1203                           u4307 0B8D  
                         u4227 0AFE                           u3605 151C                           u4317 0BA1  
                         u4237 0B11                           u4157 0A84                           u1935 120F  
                         u4407 0A43                           u4327 0BB6                           u4247 0B1F  
                         u4167 0A98                           u4417 0FF8                           u1945 121B  
                         u3545 14BE                           u3705 01A5                           u4337 094E  
                         u4257 0B33                           u4177 0AA6                           u4427 17F7  
                         u1955 1225                           u3715 01ED                           u4347 095E  
                         u4267 0B48                           u4187 0ABA                           u4437 117F  
                         u4357 0994                           u4277 0B56                           u4197 0AC8  
                         u4447 115E                           u3575 14F8                           u4367 09A4  
                         u4287 0B6A                           u4457 07E3                           u1985 12A1  
                         u3905 046B                           u4377 09ED                           u4297 0B7F  
                         u1995 12D0                           u4387 09FD                           u4397 0A33  
                         u3785 0280                           u3795 02B5                           u3895 0450  
                         _TMR1 000E                   __CFG_WRT$OFF 0000                  __CFG_FCMEN$ON 0000  
                         _gol1 0060                           _gol2 0057                           _main 0801  
                 ___ftpack@arg 002C                   ___ftpack@exp 002F                           btemp 007E  
                __CFG_BOREN$ON 0000                           start 0012                   ?_enviardato0 002C  
                 ?_enviardato2 002C                  __CFG_MCLRE$ON 0000                   ___ftmul@cntr 004A  
                 ___ftmul@sign 004B                __end_of_InitSPI 13F0                          ??_Gol 0030  
                 ___fttol@exp1 00E1                   ___fttol@lval 00DD                          ?_main 0070  
               i1___awdiv@sign 0076                __end_of___awdiv 123C              i1enviardato2@dato 0070  
                __CFG_WDTE$OFF 0000                          _ANSEL 0188                __end_of___ftmul 1622  
              ___awdiv@divisor 002C                          _T1CON 0010                __end_of___fttol 154F  
                        i1l224 10F2                          i1l227 10FA                          i1l251 1118  
                        i1l180 1700                          i1l173 16BA                          i1l165 1651  
                        i1l248 1110                          i1l169 168E                ___awdiv@counter 0031  
                        _PORTB 0006                          _PORTC 0007                          _PORTD 0008  
                        _TRISB 0086                          _TRISD 0088                          _Juego 003B  
                        _Saque 13F0                          _bufer 00A0        __end_of_Posicioninicial 0A7E  
                        _saque 0058                  ___ftpack@sign 0030                          pclath 000A  
             __end_ofi1_barras 129A          __size_ofi1_enviardato 001E                          status 0003  
                        wtemp0 007E             __size_ofi1___awdiv 0059         ??_rutinainterrupciones 0025  
              __initialization 0015                   __end_of_main 093E               __end_of_InitTMR1 10EC  
             __end_of_Marcador 1000                         ??_main 0050                  ___fttol@sign1 00DC  
       i1barras@posicionbarra1 007A         i1barras@posicionbarra2 0079                         ?_Juego 0070  
                 i1_enviardato 10EC                         ?_Saque 0070               ___awdiv@dividend 002E  
             __end_of___ftpack 1366                         _ANSELH 0189               __end_of___lbtoft 1146  
                       i1l2624 119D                         i1l2650 11DC                         i1l2642 11C9  
                       i1l2634 11A5                         i1l2618 1192                         i1l2636 11B3  
                       i1l2646 11D4                         u251_25 11B4                         u252_25 11C0  
                       u324_25 1243                         u253_25 11CA                         u325_25 1272  
                       u249_25 11A8                         u450_27 1698                         u451_27 16A9  
                       u452_27 16C4                         u453_27 16D5                         u454_27 1120  
                       u446_27 162F                         u455_27 1102                         u447_27 1640  
                       u448_27 165B                         u449_27 166C        __size_of_inicializacion 0141  
                       _SSPCON 0014                         _SSPBUF 0013                   _banderajuego 00D1  
                    ??_InitSPI 0030                 __CFG_PWRTE$OFF 0000                         _InitES 10B7  
                    ??___awdiv 0030                         _barras 129A                      ??___ftmul 0042  
                    ??___fttol 00D8                         _linea1 00C0                         _linea2 00B0  
                  _Contadormin 00D4                    _Contadorseg 00D6               ___awdiv@quotient 0033  
          enviardato@direccion 002F                         _tiempo 005B          ___ftmul@f3_as_product 0047  
            __end_ofi1___awdiv 11E1                   __pdataCOMMON 007D                         saved_w 007E  
       __size_ofi1_enviardato2 001E           barras@posicionbarra1 003D           barras@posicionbarra2 0035  
             ?_Posicioninicial 0070        __end_of__initialization 0037                 enviardato@dato 002C  
                   ___lbtoft@c 003B                     ___ftmul@f1 003C                     ___ftmul@f2 003F  
                   ___fttol@f1 004C                  __end_of_Juego 07CA                 __pcstackCOMMON 0070  
                __end_of_Saque 1486           __size_of_enviardato0 0023           __size_of_enviardato2 0021  
                 __pidataBANK0 10A8                      ?i1_barras 0079                     _banderagol 0054  
                      ??_Juego 00E2                        ??_Saque 003E                     __pbssBANK0 0051  
                   __pbssBANK1 00A0                      ?_InitTMR1 0070                      ?_Marcador 0070  
                      ?_InitES 0070                  i1_enviardato2 110A                     __pmaintext 0801  
                      ?_barras 0035                     __pintentry 0004                      ?___ftpack 002C  
                    ?___lbtoft 0034                     ??i1_barras 0020             i1___awdiv@dividend 0072  
                      _SSPSTAT 0094                     ??_InitTMR1 002C                     ??_Marcador 0030  
               _inicializacion 0A7E                        _InitSPI 1366                 ?i1_enviardato2 0070  
              __size_of_InitES 001A                     _enviardato 1146             i1___awdiv@quotient 0077  
               _BanderaSprintf 00D7                        ___awdiv 11E1                        ___ftmul 154F  
                      ___fttol 1486                __size_of_barras 005E                     ??___ftpack 0031  
                   ??___lbtoft 0037                        __ptext1 0A7E                        __ptext2 093E  
                      __ptext3 003B                        __ptext4 1128                        __ptext5 1486  
                      __ptext6 154F                        __ptext7 12F8                        __ptext8 13F0  
                      __ptext9 129A                        _ledball 005F                      _T1CONbits 0010  
                 __size_of_Gol 00F3                        clrloop0 10B0         __end_of_inicializacion 0BBF  
         end_of_initialization 0037  __size_of_rutinainterrupciones 00EB                      _PORTBbits 0006  
                    _PORTCbits 0007                    _Trayectoria 005C                enviardato0@dato 002C  
              enviardato2@dato 002C                      _TRISCbits 0087                      i1___awdiv 1188  
              ?_inicializacion 0070                ??i1_enviardato2 0071                    ?_enviardato 002C  
                  ___ftmul@exp 0046                 __end_of_InitES 10D1                 __end_of_barras 12F8  
                __pidataCOMMON 07FE               i1enviardato@dato 0070              barras@barrafinal1 003B  
            barras@barrafinal2 003C            start_initialization 0015              __size_ofi1_barras 005E  
                  __end_of_Gol 1800                     ?i1___awdiv 0070              __size_of_InitTMR1 001B  
            __size_of_Marcador 0441                  ??_enviardato0 002D                  ??_enviardato2 002D  
                     ??_InitES 002C       __size_of_Posicioninicial 0140                     init_fetch0 07ED  
                     ??_barras 0036                    __pdataBANK0 005B              __size_of___ftpack 006E  
            __size_of___lbtoft 001E                      ___latbits 0002                  __pcstackBANK0 0020  
                __pcstackBANK1 00D8            __size_of_enviardato 0021                       ?_InitSPI 0070  
                     ?___awdiv 002C                       ?___ftmul 003C                       ?___fttol 004C  
          __end_of_enviardato0 07ED            __end_of_enviardato2 1188              i1___awdiv@divisor 0070  
        i1enviardato@direccion 0073              i1___awdiv@counter 0075                      _ledbarra1 005D  
                    _ledbarra2 007D                  ?i1_enviardato 0070                 __size_of_Juego 078F  
               __size_of_Saque 0096                    ??i1___awdiv 0074              interrupt_function 0004  
                    clear_ram0 10AF                       _PIE1bits 008C                       _PIR1bits 000C  
            ??_Posicioninicial 003E                 _banderainicio1 005A                 _banderainicio2 0059  
                     i1_barras 123C                 ??i1_enviardato 0071               ??_inicializacion 002C  
 __end_of_rutinainterrupciones 170D                       _InitTMR1 10D1                       _Marcador 0BBF  
                  _enviardato0 07CA                    _enviardato2 1167         i1enviardato2@direccion 0073  
             __size_of_InitSPI 008A                   ??_enviardato 002D               __size_of___awdiv 005B  
             __size_of___ftmul 00D3               __size_of___fttol 00C9                       ___ftpack 12F8  
                     ___lbtoft 1128                       _bandera1 0053                       _bandera2 0052  
                     _bandera3 0051                       _bandera4 00D2           enviardato0@direccion 002F  
                     __ptext10 11E1                       __ptext11 0BBF                       __ptext20 123C  
                     __ptext12 170D                       __ptext21 110A                       __ptext13 1167  
                     __ptext22 10EC                       __ptext14 1146                       __ptext23 1188  
                     __ptext15 10D1                       __ptext16 1366                       __ptext17 07CA  
                     __ptext18 10B7                       __ptext19 1622                       _filaball 005E  
            __CFG_BOR4V$BOR40V 0000             __end_of_enviardato 1167                       _contador 00D0  
                __size_of_main 013D          __end_ofi1_enviardato2 1128           enviardato2@direccion 002F  
                     _puntaje1 0056                       _puntaje2 0055                     _INTCONbits 000B  
                     init_ram0 07F1                       intlevel1 0000            i1barras@barrafinal1 007B  
          i1barras@barrafinal2 007C           __end_ofi1_enviardato 110A           _rutinainterrupciones 1622  
                 _primerinicio 0061                _Posicioninicial 093E          ?_rutinainterrupciones 0070  
